Archive member included to satisfy reference by file (symbol)

/usr/lib/gcc-cross/arm-linux-gnueabihf/4.8/sf/libgcc.a(_udivsi3.o)
                              disk/built-in.o (__aeabi_uidiv)
/usr/lib/gcc-cross/arm-linux-gnueabihf/4.8/sf/libgcc.a(_divsi3.o)
                              common/built-in.o (__aeabi_idiv)
/usr/lib/gcc-cross/arm-linux-gnueabihf/4.8/sf/libgcc.a(_lshrdi3.o)
                              lib/built-in.o (__aeabi_llsr)
/usr/lib/gcc-cross/arm-linux-gnueabihf/4.8/sf/libgcc.a(_ashldi3.o)
                              drivers/mmc/built-in.o (__aeabi_llsl)
/usr/lib/gcc-cross/arm-linux-gnueabihf/4.8/sf/libgcc.a(_dvmd_lnx.o)
                              /usr/lib/gcc-cross/arm-linux-gnueabihf/4.8/sf/libgcc.a(_udivsi3.o) (__aeabi_idiv0)

Discarded input sections

 .data          0x0000000000000000        0x0 arch/arm/cpu/armv7/start.o
 .bss           0x0000000000000000        0x0 arch/arm/cpu/armv7/start.o
 .text          0x0000000000000000        0x0 arch/arm/cpu/armv7/built-in.o
 .text.v7_dcache_inval_range
                0x0000000000000000       0x80 arch/arm/cpu/armv7/built-in.o
 .text.mmu_page_table_flush
                0x0000000000000000       0x24 arch/arm/cpu/armv7/built-in.o
 .text.v7_outer_cache_inval_range
                0x0000000000000000        0x4 arch/arm/cpu/armv7/built-in.o
 .text.invalidate_dcache_range
                0x0000000000000000       0x38 arch/arm/cpu/armv7/built-in.o
 .text.v7_arch_cp15_set_l2aux_ctrl
                0x0000000000000000        0x8 arch/arm/cpu/armv7/built-in.o
 .text.v7_arch_cp15_set_acr
                0x0000000000000000        0x8 arch/arm/cpu/armv7/built-in.o
 .text.sdelay   0x0000000000000000        0xc arch/arm/cpu/armv7/built-in.o
 .text.wait_on_value
                0x0000000000000000       0x34 arch/arm/cpu/armv7/built-in.o
 .rodata.str1.1
                0x0000000000000000       0x65 arch/arm/cpu/armv7/built-in.o
 .rodata.__func__.7587
                0x0000000000000000       0x16 arch/arm/cpu/armv7/built-in.o
 .data          0x0000000000000000        0x0 arch/arm/cpu/armv7/built-in.o
 .bss           0x0000000000000000        0x0 arch/arm/cpu/armv7/built-in.o
 .text.flush_cache
                0x0000000000000000        0x4 arch/arm/lib/built-in.o
 .text.flush_dcache_all
                0x0000000000000000        0xc arch/arm/lib/built-in.o
 .text.arm_init_before_mmu
                0x0000000000000000        0x4 arch/arm/lib/built-in.o
 .text.mmu_page_table_flush
                0x0000000000000000        0x4 arch/arm/lib/built-in.o
 .text.mmu_set_region_dcache_behaviour
                0x0000000000000000       0x50 arch/arm/lib/built-in.o
 .text.icache_status
                0x0000000000000000        0xc arch/arm/lib/built-in.o
 .data          0x0000000000000000        0x0 arch/arm/lib/built-in.o
 .__secure_start
                0x0000000000000000        0x0 arch/arm/lib/built-in.o
 .__secure_end  0x0000000000000000        0x0 arch/arm/lib/built-in.o
 .bss           0x0000000000000000        0x0 arch/arm/lib/built-in.o
 .text          0x0000000000000000        0x0 board/armltd/vexpress/built-in.o
 .data          0x0000000000000000        0x0 board/armltd/vexpress/built-in.o
 .bss           0x0000000000000000        0x0 board/armltd/vexpress/built-in.o
 .text          0x0000000000000000        0x0 common/built-in.o
 .text.hash_progressive_lookup_algo
                0x0000000000000000       0x68 common/built-in.o
 .text.hash_parse_string
                0x0000000000000000       0x68 common/built-in.o
 .text.hash_block
                0x0000000000000000       0x70 common/built-in.o
 .text.unset_local_var
                0x0000000000000000       0x9c common/built-in.o
 .text.red_led_off
                0x0000000000000000        0x4 common/built-in.o
 .text.green_led_on
                0x0000000000000000        0x4 common/built-in.o
 .text.green_led_off
                0x0000000000000000        0x4 common/built-in.o
 .text.yellow_led_on
                0x0000000000000000        0x4 common/built-in.o
 .text.yellow_led_off
                0x0000000000000000        0x4 common/built-in.o
 .text.blue_led_on
                0x0000000000000000        0x4 common/built-in.o
 .text.blue_led_off
                0x0000000000000000        0x4 common/built-in.o
 .text.dram_init_banksize
                0x0000000000000000       0x20 common/built-in.o
 .text.arch_reserve_stacks
                0x0000000000000000        0x8 common/built-in.o
 .text.board_init_f_mem
                0x0000000000000000       0x28 common/built-in.o
 .text.fixup_cpu
                0x0000000000000000        0x8 common/built-in.o
 .text.bootz_setup
                0x0000000000000000       0x18 common/built-in.o
 .text.env_flags_parse_varaccess_from_binflags
                0x0000000000000000       0x28 common/built-in.o
 .text.of_bus_default_map
                0x0000000000000000       0xdc common/built-in.o
 .text.fdt_read_prop
                0x0000000000000000       0x64 common/built-in.o
 .text.of_bus_default_count_cells
                0x0000000000000000       0x58 common/built-in.o
 .text.of_bus_default_translate
                0x0000000000000000       0xa0 common/built-in.o
 .text.fdt_getprop_u32_default_node
                0x0000000000000000       0x44 common/built-in.o
 .text.fdt_getprop_u32_default
                0x0000000000000000       0x3c common/built-in.o
 .text.do_fixup_by_path_u32
                0x0000000000000000       0x2c common/built-in.o
 .text.do_fixup_by_prop
                0x0000000000000000       0x98 common/built-in.o
 .text.do_fixup_by_prop_u32
                0x0000000000000000       0x3c common/built-in.o
 .text.do_fixup_by_compat
                0x0000000000000000       0x88 common/built-in.o
 .text.do_fixup_by_compat_u32
                0x0000000000000000       0x2c common/built-in.o
 .text.fdt_increase_size
                0x0000000000000000       0x14 common/built-in.o
 .text.fdt_del_node_and_alias
                0x0000000000000000       0x44 common/built-in.o
 .text.fdt_translate_address
                0x0000000000000000      0x294 common/built-in.o
 .text.fdt_node_offset_by_compat_reg
                0x0000000000000000       0x88 common/built-in.o
 .text.fdt_alloc_phandle
                0x0000000000000000       0x58 common/built-in.o
 .text.fdt_set_phandle
                0x0000000000000000       0x60 common/built-in.o
 .text.fdt_create_phandle
                0x0000000000000000       0x64 common/built-in.o
 .text.fdt_set_node_status
                0x0000000000000000      0x108 common/built-in.o
 .text.fdt_set_status_by_alias
                0x0000000000000000       0x2c common/built-in.o
 .text.fdt_verify_alias_address
                0x0000000000000000       0xcc common/built-in.o
 .text.fdt_get_base_address
                0x0000000000000000       0x58 common/built-in.o
 .text.fdt_read_range
                0x0000000000000000      0x144 common/built-in.o
 .text.fdt_setup_simplefb_node
                0x0000000000000000      0x1fc common/built-in.o
 .text.fdt_fixup_display
                0x0000000000000000       0xd8 common/built-in.o
 .text.splash_screen_prepare
                0x0000000000000000        0x8 common/built-in.o
 .text.menu_default_choice
                0x0000000000000000       0x1c common/built-in.o
 .text.serial_printf
                0x0000000000000000       0x40 common/built-in.o
 .text.fputs    0x0000000000000000       0x1c common/built-in.o
 .text.fprintf  0x0000000000000000       0x48 common/built-in.o
 .text.confirm_yesno
                0x0000000000000000       0xd4 common/built-in.o
 .text.disable_ctrlc
                0x0000000000000000       0x18 common/built-in.o
 .text.valloc   0x0000000000000000        0xc common/built-in.o
 .text.pvalloc  0x0000000000000000       0x18 common/built-in.o
 .text.cfree    0x0000000000000000        0x4 common/built-in.o
 .text.malloc_usable_size
                0x0000000000000000       0x3c common/built-in.o
 .text.mallopt  0x0000000000000000       0x68 common/built-in.o
 .text.genimg_get_type_short_name
                0x0000000000000000       0x28 common/built-in.o
 .text.arch_fixup_fdt
                0x0000000000000000        0x8 common/built-in.o
 .text.fit_get_subimage_count
                0x0000000000000000       0x50 common/built-in.o
 .text.fit_get_timestamp
                0x0000000000000000       0x54 common/built-in.o
 .text.fit_set_timestamp
                0x0000000000000000       0x80 common/built-in.o
 .text.fit_conf_find_compat
                0x0000000000000000      0x1a4 common/built-in.o
 .text.stdio_init
                0x0000000000000000       0x14 common/built-in.o
 .text.cli_simple_parse_line
                0x0000000000000000       0x88 common/built-in.o
 .text.cli_simple_run_command
                0x0000000000000000      0x154 common/built-in.o
 .text.cli_simple_loop
                0x0000000000000000       0x78 common/built-in.o
 .text.cli_simple_run_command_list
                0x0000000000000000       0x70 common/built-in.o
 .text.run_command_repeatable
                0x0000000000000000       0x18 common/built-in.o
 .text.cmd_process_error
                0x0000000000000000       0x30 common/built-in.o
 .text.hex1_bin
                0x0000000000000000       0x40 common/built-in.o
 .text.hex2_bin
                0x0000000000000000       0x38 common/built-in.o
 .text.srec_decode
                0x0000000000000000      0x254 common/built-in.o
 .text.CYGACC_COMM_IF_GETC_TIMEOUT.isra.0
                0x0000000000000000       0x4c common/built-in.o
 .text.xyzModem_flush
                0x0000000000000000       0x1c common/built-in.o
 .text.xyzModem_get_hdr
                0x0000000000000000      0x230 common/built-in.o
 .text.xyzModem_stream_open
                0x0000000000000000      0x248 common/built-in.o
 .text.xyzModem_stream_read
                0x0000000000000000      0x24c common/built-in.o
 .text.xyzModem_stream_close
                0x0000000000000000       0x54 common/built-in.o
 .text.xyzModem_stream_terminate
                0x0000000000000000       0x94 common/built-in.o
 .text.xyzModem_error
                0x0000000000000000       0x20 common/built-in.o
 .rodata.__FUNCTION__.7810
                0x0000000000000000       0x17 common/built-in.o
 .rodata.CSWTCH.28
                0x0000000000000000       0x20 common/built-in.o
 .data          0x0000000000000000        0x0 common/built-in.o
 .data.of_busses
                0x0000000000000000       0x14 common/built-in.o
 .data.mmap_threshold
                0x0000000000000000        0x4 common/built-in.o
 .bss           0x0000000000000000        0x0 common/built-in.o
 .bss.n_mmaps_max
                0x0000000000000000        0x4 common/built-in.o
 .bss.save_addr
                0x0000000000000000        0x4 common/built-in.o
 .bss.save_size
                0x0000000000000000        0x4 common/built-in.o
 .bss.lastcommand.7436
                0x0000000000000000      0x200 common/built-in.o
 .bss.xyz       0x0000000000000000      0x434 common/built-in.o
 .text          0x0000000000000000        0x0 disk/built-in.o
 .text.get_dev  0x0000000000000000        0x8 disk/built-in.o
 .data          0x0000000000000000        0x0 disk/built-in.o
 .bss           0x0000000000000000        0x0 disk/built-in.o
 .text          0x0000000000000000        0x0 drivers/built-in.o
 .text.rsa_mod_exp
                0x0000000000000000       0x2c drivers/built-in.o
 .text.input_tstc
                0x0000000000000000       0x48 drivers/built-in.o
 .text.input_getc
                0x0000000000000000       0x58 drivers/built-in.o
 .text.input_send_keycodes
                0x0000000000000000      0x3b0 drivers/built-in.o
 .text.input_add_table
                0x0000000000000000       0x40 drivers/built-in.o
 .text.input_set_delays
                0x0000000000000000        0xc drivers/built-in.o
 .text.input_init
                0x0000000000000000       0x9c drivers/built-in.o
 .text.input_stdio_register
                0x0000000000000000       0x50 drivers/built-in.o
 .rodata.kbd_to_ansi364
                0x0000000000000000       0x20 drivers/built-in.o
 .rodata.kbd_plain_xlate
                0x0000000000000000       0x63 drivers/built-in.o
 .rodata.CSWTCH.28
                0x0000000000000000        0xd drivers/built-in.o
 .data          0x0000000000000000        0x0 drivers/built-in.o
 .data.kbd_ctrl_xlate
                0x0000000000000000       0x63 drivers/built-in.o
 .data.kbd_shift_xlate
                0x0000000000000000       0x63 drivers/built-in.o
 .bss           0x0000000000000000        0x0 drivers/built-in.o
 .text          0x0000000000000000        0x0 drivers/mmc/built-in.o
 .text.mmc_register
                0x0000000000000000       0x20 drivers/mmc/built-in.o
 .text.mmc_destroy
                0x0000000000000000        0x4 drivers/mmc/built-in.o
 .text.cpu_mmc_init
                0x0000000000000000        0x8 drivers/mmc/built-in.o
 .text.mmc_set_preinit
                0x0000000000000000        0x8 drivers/mmc/built-in.o
 .rodata.__func__.7911
                0x0000000000000000        0xd drivers/mmc/built-in.o
 .data          0x0000000000000000        0x0 drivers/mmc/built-in.o
 .bss           0x0000000000000000        0x0 drivers/mmc/built-in.o
 .text          0x0000000000000000        0x0 drivers/mtd/built-in.o
 .text.flash_read_user_serial
                0x0000000000000000       0x68 drivers/mtd/built-in.o
 .text.flash_read_factory_serial
                0x0000000000000000       0x68 drivers/mtd/built-in.o
 .data          0x0000000000000000        0x0 drivers/mtd/built-in.o
 .bss           0x0000000000000000        0x0 drivers/mtd/built-in.o
 .text          0x0000000000000000        0x0 drivers/net/built-in.o
 .data          0x0000000000000000        0x0 drivers/net/built-in.o
 .bss           0x0000000000000000        0x0 drivers/net/built-in.o
 .text          0x0000000000000000        0x0 drivers/serial/built-in.o
 .text.serial_reinit_all
                0x0000000000000000       0x2c drivers/serial/built-in.o
 .bss           0x0000000000000000        0x0 drivers/serial/built-in.o
 .text          0x0000000000000000        0x0 drivers/spi/built-in.o
 .text.spi_set_wordlen
                0x0000000000000000       0x30 drivers/spi/built-in.o
 .text.spi_do_alloc_slave
                0x0000000000000000       0x4c drivers/spi/built-in.o
 .rodata.str1.1
                0x0000000000000000       0x19 drivers/spi/built-in.o
 .data          0x0000000000000000        0x0 drivers/spi/built-in.o
 .bss           0x0000000000000000        0x0 drivers/spi/built-in.o
 .comment       0x0000000000000000       0x2c drivers/spi/built-in.o
 .note.GNU-stack
                0x0000000000000000        0x0 drivers/spi/built-in.o
 .ARM.attributes
                0x0000000000000000       0x2d drivers/spi/built-in.o
 .debug_aranges
                0x0000000000000000       0x28 drivers/spi/built-in.o
 .debug_info    0x0000000000000000      0x515 drivers/spi/built-in.o
 .debug_abbrev  0x0000000000000000      0x1a5 drivers/spi/built-in.o
 .debug_line    0x0000000000000000      0x102 drivers/spi/built-in.o
 .debug_frame   0x0000000000000000       0x48 drivers/spi/built-in.o
 .debug_str     0x0000000000000000      0x484 drivers/spi/built-in.o
 .debug_loc     0x0000000000000000      0x10f drivers/spi/built-in.o
 .debug_ranges  0x0000000000000000       0x18 drivers/spi/built-in.o
 .text          0x0000000000000000        0x0 fs/built-in.o
 .text.fs_uuid  0x0000000000000000       0x28 fs/built-in.o
 .text.fs_write
                0x0000000000000000       0x88 fs/built-in.o
 .text.do_save  0x0000000000000000      0x190 fs/built-in.o
 .text.do_fs_uuid
                0x0000000000000000       0x90 fs/built-in.o
 .text.do_fs_type
                0x0000000000000000       0x78 fs/built-in.o
 .text.fat_register_device
                0x0000000000000000       0x88 fs/built-in.o
 .text.file_fat_read
                0x0000000000000000       0x38 fs/built-in.o
 .text.file_getfsname
                0x0000000000000000       0x18 fs/built-in.o
 .text.file_cd  0x0000000000000000      0x1e4 fs/built-in.o
 .text.file_detectfs
                0x0000000000000000       0x40 fs/built-in.o
 .text.file_ls  0x0000000000000000       0x94 fs/built-in.o
 .text.file_read
                0x0000000000000000       0xa4 fs/built-in.o
 .rodata.filesystems
                0x0000000000000000       0x18 fs/built-in.o
 .data          0x0000000000000000        0x0 fs/built-in.o
 .data.file_cwd
                0x0000000000000000      0x200 fs/built-in.o
 .data.current_filesystem
                0x0000000000000000        0x4 fs/built-in.o
 .bss           0x0000000000000000        0x0 fs/built-in.o
 .text          0x0000000000000000        0x0 lib/built-in.o
 .text.inflateInit_
                0x0000000000000000       0x14 lib/built-in.o
 .text.fdt_getprop_by_offset
                0x0000000000000000       0x48 lib/built-in.o
 .text.fdt_get_phandle
                0x0000000000000000       0x70 lib/built-in.o
 .text.fdt_get_alias
                0x0000000000000000       0x28 lib/built-in.o
 .text.fdt_get_path
                0x0000000000000000      0x13c lib/built-in.o
 .text.fdt_parent_offset
                0x0000000000000000       0x30 lib/built-in.o
 .text.fdt_node_offset_by_prop_value
                0x0000000000000000       0x9c lib/built-in.o
 .text.fdt_node_offset_by_phandle
                0x0000000000000000       0x78 lib/built-in.o
 .text.fdt_stringlist_contains
                0x0000000000000000       0x7c lib/built-in.o
 .text.fdt_count_strings
                0x0000000000000000       0x58 lib/built-in.o
 .text.fdt_find_string
                0x0000000000000000       0x8c lib/built-in.o
 .text.fdt_get_string
                0x0000000000000000       0x18 lib/built-in.o
 .text.fdt_node_check_compatible
                0x0000000000000000       0x40 lib/built-in.o
 .text.fdt_node_offset_by_compatible
                0x0000000000000000       0x74 lib/built-in.o
 .text.fdt_set_name
                0x0000000000000000       0x88 lib/built-in.o
 .text.fdt_appendprop
                0x0000000000000000       0xd0 lib/built-in.o
 .text.fdt_pack
                0x0000000000000000       0x5c lib/built-in.o
 .text.fdt_remove_unused_strings
                0x0000000000000000       0xb0 lib/built-in.o
 .text._fdt_sw_check_header
                0x0000000000000000       0x20 lib/built-in.o
 .text._fdt_grab_space
                0x0000000000000000       0x58 lib/built-in.o
 .text.fdt_create
                0x0000000000000000       0x64 lib/built-in.o
 .text.fdt_resize
                0x0000000000000000       0xb4 lib/built-in.o
 .text.fdt_add_reservemap_entry
                0x0000000000000000       0x90 lib/built-in.o
 .text.fdt_finish_reservemap
                0x0000000000000000       0x1c lib/built-in.o
 .text.fdt_begin_node
                0x0000000000000000       0x68 lib/built-in.o
 .text.fdt_end_node
                0x0000000000000000       0x40 lib/built-in.o
 .text.fdt_property
                0x0000000000000000      0x10c lib/built-in.o
 .text.fdt_finish
                0x0000000000000000      0x108 lib/built-in.o
 .text.fdt_setprop_inplace
                0x0000000000000000       0x44 lib/built-in.o
 .text.fdt_nop_property
                0x0000000000000000       0x3c lib/built-in.o
 .text.fdt_nop_node
                0x0000000000000000       0x50 lib/built-in.o
 .text.fdt_find_regions
                0x0000000000000000      0x380 lib/built-in.o
 .text.fdt_create_empty_tree
                0x0000000000000000       0x74 lib/built-in.o
 .text.fdt_add_region
                0x0000000000000000       0x8c lib/built-in.o
 .text.fdt_add_alias_regions
                0x0000000000000000      0x1a0 lib/built-in.o
 .text.fdt_next_region
                0x0000000000000000      0x528 lib/built-in.o
 .text.fdt_first_region
                0x0000000000000000       0x48 lib/built-in.o
 .text.crc7     0x0000000000000000       0x24 lib/built-in.o
 .text.crc8     0x0000000000000000       0x44 lib/built-in.o
 .text.cyg_crc16
                0x0000000000000000       0x44 lib/built-in.o
 .text.fdtdec_get_int
                0x0000000000000000       0x38 lib/built-in.o
 .text.gzwrite_progress_init
                0x0000000000000000        0x8 lib/built-in.o
 .text.gzwrite_progress
                0x0000000000000000       0x20 lib/built-in.o
 .text.gzwrite_progress_finish
                0x0000000000000000       0x50 lib/built-in.o
 .text.gzwrite  0x0000000000000000      0x4b4 lib/built-in.o
 .text.lmb_dump_all
                0x0000000000000000        0x4 lib/built-in.o
 .text.lmb_is_reserved
                0x0000000000000000       0x50 lib/built-in.o
 .text.arch_lmb_reserve
                0x0000000000000000        0x4 lib/built-in.o
 .text.ldiv     0x0000000000000000       0x50 lib/built-in.o
 .text.md5      0x0000000000000000       0x68 lib/built-in.o
 .text.strcmp_compar
                0x0000000000000000        0xc lib/built-in.o
 .text.rc4_encode
                0x0000000000000000       0xe8 lib/built-in.o
 .text.sha1_csum
                0x0000000000000000       0x40 lib/built-in.o
 .text.sha1_hmac
                0x0000000000000000      0x128 lib/built-in.o
 .text.sha1_self_test
                0x0000000000000000        0x8 lib/built-in.o
 .text.strmhz   0x0000000000000000       0x70 lib/built-in.o
 .text.merge    0x0000000000000000       0x68 lib/built-in.o
 .text.list_sort
                0x0000000000000000      0x198 lib/built-in.o
 .text.hmatch_r
                0x0000000000000000       0xa0 lib/built-in.o
 .text.print_freq
                0x0000000000000000      0x1bc lib/built-in.o
 .text.copy_from_user
                0x0000000000000000       0x10 lib/built-in.o
 .text.kmalloc  0x0000000000000000       0x38 lib/built-in.o
 .text.get_mem  0x0000000000000000       0x1c lib/built-in.o
 .text.kmem_cache_alloc
                0x0000000000000000       0x10 lib/built-in.o
 .text.strspn   0x0000000000000000       0x3c lib/built-in.o
 .text.strpbrk  0x0000000000000000       0x3c lib/built-in.o
 .text.strtok   0x0000000000000000       0x88 lib/built-in.o
 .text.strsep   0x0000000000000000       0x38 lib/built-in.o
 .text.strswab  0x0000000000000000       0x48 lib/built-in.o
 .text.bcopy    0x0000000000000000       0x20 lib/built-in.o
 .text.strlcpy  0x0000000000000000       0x50 lib/built-in.o
 .text.memscan  0x0000000000000000       0x2c lib/built-in.o
 .text.memchr_inv
                0x0000000000000000      0x144 lib/built-in.o
 .text.timer_read_counter
                0x0000000000000000       0x14 lib/built-in.o
 .text.timer_get_us
                0x0000000000000000       0x60 lib/built-in.o
 .text.uuid_bin_to_str
                0x0000000000000000       0xa8 lib/built-in.o
 .text.trailing_strtoln
                0x0000000000000000       0x60 lib/built-in.o
 .text.trailing_strtol
                0x0000000000000000        0x8 lib/built-in.o
 .text.panic_str
                0x0000000000000000        0xc lib/built-in.o
 .text.__assert_fail
                0x0000000000000000       0x14 lib/built-in.o
 .text.print_grouped_ull
                0x0000000000000000       0x88 lib/built-in.o
 .text.str2off  0x0000000000000000       0x40 lib/built-in.o
 .text.str2long
                0x0000000000000000       0x40 lib/built-in.o
 .rodata        0x0000000000000000       0x20 lib/built-in.o
 .rodata.z_errmsg
                0x0000000000000000       0x28 lib/built-in.o
 .rodata.crc7_syndrome_table
                0x0000000000000000      0x100 lib/built-in.o
 .rodata.crc16_tab
                0x0000000000000000      0x200 lib/built-in.o
 .rodata.__func__.7592
                0x0000000000000000        0x8 lib/built-in.o
 .rodata.names.7486
                0x0000000000000000        0x3 lib/built-in.o
 .data          0x0000000000000000        0x0 lib/built-in.o
 .data.cur      0x0000000000000000        0x4 lib/built-in.o
 .data.current  0x0000000000000000        0x4 lib/built-in.o
 .bss           0x0000000000000000        0x0 lib/built-in.o
 .bss.___strtok
                0x0000000000000000        0x4 lib/built-in.o
 .text          0x0000000000000000        0x0 net/built-in.o
 .text.add_ip_checksums
                0x0000000000000000       0x3c net/built-in.o
 .text.eth_unregister
                0x0000000000000000       0x9c net/built-in.o
 .text.net_get_udp_handler
                0x0000000000000000       0x10 net/built-in.o
 .text.net_set_arp_handler
                0x0000000000000000       0x20 net/built-in.o
 .text.vlan_to_string
                0x0000000000000000       0x44 net/built-in.o
 .text.getenv_vlan
                0x0000000000000000       0x10 net/built-in.o
 .data          0x0000000000000000        0x0 net/built-in.o
 .data.tftp_timeout_ms
                0x0000000000000000        0x4 net/built-in.o
 .bss           0x0000000000000000        0x0 net/built-in.o
 .bss.net_busy_flag
                0x0000000000000000        0x4 net/built-in.o
 .text          0x0000000000000000        0x0 arch/arm/lib/eabi_compat.o
 .data          0x0000000000000000        0x0 arch/arm/lib/eabi_compat.o
 .bss           0x0000000000000000        0x0 arch/arm/lib/eabi_compat.o
 .text.__aeabi_unwind_cpp_pr0
                0x0000000000000000        0x4 arch/arm/lib/eabi_compat.o
 .text.__aeabi_unwind_cpp_pr1
                0x0000000000000000        0x4 arch/arm/lib/eabi_compat.o
 .text.__aeabi_memcpy
                0x0000000000000000        0x4 arch/arm/lib/eabi_compat.o
 .text.__aeabi_memset
                0x0000000000000000       0x10 arch/arm/lib/eabi_compat.o
 .data          0x0000000000000000        0x0 /usr/lib/gcc-cross/arm-linux-gnueabihf/4.8/sf/libgcc.a(_udivsi3.o)
 .bss           0x0000000000000000        0x0 /usr/lib/gcc-cross/arm-linux-gnueabihf/4.8/sf/libgcc.a(_udivsi3.o)
 .data          0x0000000000000000        0x0 /usr/lib/gcc-cross/arm-linux-gnueabihf/4.8/sf/libgcc.a(_divsi3.o)
 .bss           0x0000000000000000        0x0 /usr/lib/gcc-cross/arm-linux-gnueabihf/4.8/sf/libgcc.a(_divsi3.o)
 .data          0x0000000000000000        0x0 /usr/lib/gcc-cross/arm-linux-gnueabihf/4.8/sf/libgcc.a(_lshrdi3.o)
 .bss           0x0000000000000000        0x0 /usr/lib/gcc-cross/arm-linux-gnueabihf/4.8/sf/libgcc.a(_lshrdi3.o)
 .data          0x0000000000000000        0x0 /usr/lib/gcc-cross/arm-linux-gnueabihf/4.8/sf/libgcc.a(_ashldi3.o)
 .bss           0x0000000000000000        0x0 /usr/lib/gcc-cross/arm-linux-gnueabihf/4.8/sf/libgcc.a(_ashldi3.o)
 .data          0x0000000000000000        0x0 /usr/lib/gcc-cross/arm-linux-gnueabihf/4.8/sf/libgcc.a(_dvmd_lnx.o)
 .bss           0x0000000000000000        0x0 /usr/lib/gcc-cross/arm-linux-gnueabihf/4.8/sf/libgcc.a(_dvmd_lnx.o)

Memory Configuration

Name             Origin             Length             Attributes
*default*        0x0000000000000000 0xffffffffffffffff

Linker script and memory map

Address of section .text set to 0x60800000
                0x0000000000000000                . = 0x0
                0x0000000000000000                . = ALIGN (0x4)

.text           0x0000000060800000    0x2b67c
 *(.__image_copy_start)
 .__image_copy_start
                0x0000000060800000        0x0 arch/arm/lib/built-in.o
                0x0000000060800000                __image_copy_start
 *(.vectors)
 .vectors       0x0000000060800000      0x300 arch/arm/lib/built-in.o
                0x0000000060800000                _start
                0x0000000060800020                _undefined_instruction
                0x0000000060800024                _software_interrupt
                0x0000000060800028                _prefetch_abort
                0x000000006080002c                _data_abort
                0x0000000060800030                _not_used
                0x0000000060800034                _irq
                0x0000000060800038                _fiq
                0x0000000060800040                IRQ_STACK_START_IN
 arch/arm/cpu/armv7/start.o(.text*)
 .text          0x0000000060800300       0xb0 arch/arm/cpu/armv7/start.o
                0x0000000060800300                reset
                0x0000000060800304                save_boot_params_ret
                0x0000000060800340                c_runtime_cpu_setup
                0x0000000060800350                save_boot_params
                0x0000000060800354                cpu_init_cp15
                0x00000000608003a8                cpu_init_crit
 *(.text*)
 .text.v7_maint_dcache_all
                0x00000000608003b0       0xd4 arch/arm/cpu/armv7/built-in.o
 .text.invalidate_icache_all
                0x0000000060800484       0x18 arch/arm/cpu/armv7/built-in.o
                0x0000000060800484                invalidate_icache_all
 .text.v7_outer_cache_enable
                0x000000006080049c        0x4 arch/arm/cpu/armv7/built-in.o
                0x000000006080049c                v7_outer_cache_enable
 .text.v7_outer_cache_disable
                0x00000000608004a0        0x4 arch/arm/cpu/armv7/built-in.o
                0x00000000608004a0                v7_outer_cache_disable
 .text.v7_outer_cache_flush_all
                0x00000000608004a4        0x4 arch/arm/cpu/armv7/built-in.o
                0x00000000608004a4                v7_outer_cache_flush_all
 .text.flush_dcache_all
                0x00000000608004a8       0x14 arch/arm/cpu/armv7/built-in.o
                0x00000000608004a8                flush_dcache_all
 .text.v7_outer_cache_inval_all
                0x00000000608004bc        0x4 arch/arm/cpu/armv7/built-in.o
                0x00000000608004bc                v7_outer_cache_inval_all
 .text.invalidate_dcache_all
                0x00000000608004c0       0x14 arch/arm/cpu/armv7/built-in.o
                0x00000000608004c0                invalidate_dcache_all
 .text.arm_init_before_mmu
                0x00000000608004d4       0x28 arch/arm/cpu/armv7/built-in.o
                0x00000000608004d4                arm_init_before_mmu
 .text.v7_outer_cache_flush_range
                0x00000000608004fc        0x4 arch/arm/cpu/armv7/built-in.o
                0x00000000608004fc                v7_outer_cache_flush_range
 .text.flush_dcache_range
                0x0000000060800500       0x38 arch/arm/cpu/armv7/built-in.o
                0x0000000060800500                flush_dcache_range
 .text.flush_cache
                0x0000000060800538        0x8 arch/arm/cpu/armv7/built-in.o
                0x0000000060800538                flush_cache
 .text.cpu_cache_initialization
                0x0000000060800540        0x4 arch/arm/cpu/armv7/built-in.o
                0x0000000060800540                cpu_cache_initialization
 .text.cleanup_before_linux_select
                0x0000000060800544       0x44 arch/arm/cpu/armv7/built-in.o
                0x0000000060800544                cleanup_before_linux_select
 .text.cleanup_before_linux
                0x0000000060800588        0x8 arch/arm/cpu/armv7/built-in.o
                0x0000000060800588                cleanup_before_linux
 .text          0x0000000060800590       0xa0 arch/arm/lib/built-in.o
                0x0000000060800590                _main
 .text.relocate_vectors
                0x0000000060800630       0x70 arch/arm/lib/built-in.o
                0x0000000060800630                relocate_vectors
                0x000000006080063c                relocate_code
 .text.arch_fixup_fdt
                0x00000000608006a0       0x54 arch/arm/lib/built-in.o
                0x00000000608006a0                arch_fixup_fdt
 .text.boot_jump_linux
                0x00000000608006f4       0xb8 arch/arm/lib/built-in.o
 .text.arch_lmb_reserve
                0x00000000608007ac       0x24 arch/arm/lib/built-in.o
                0x00000000608007ac                arch_lmb_reserve
 .text.setup_board_tags
                0x00000000608007d0        0x4 arch/arm/lib/built-in.o
                0x00000000608007d0                setup_board_tags
 .text.boot_prep_linux
                0x00000000608007d4      0x1ac arch/arm/lib/built-in.o
 .text.do_bootm_linux
                0x0000000060800980       0x60 arch/arm/lib/built-in.o
                0x0000000060800980                do_bootm_linux
 .text.bootz_setup
                0x00000000608009e0       0x60 arch/arm/lib/built-in.o
                0x00000000608009e0                bootz_setup
 .text.boot_prep_vxworks
                0x0000000060800a40       0x4c arch/arm/lib/built-in.o
                0x0000000060800a40                boot_prep_vxworks
 .text.boot_jump_vxworks
                0x0000000060800a8c        0xc arch/arm/lib/built-in.o
                0x0000000060800a8c                boot_jump_vxworks
 .text.arch_reserve_stacks
                0x0000000060800a98       0x1c arch/arm/lib/built-in.o
                0x0000000060800a98                arch_reserve_stacks
 .text.interrupt_init
                0x0000000060800ab4       0x1c arch/arm/lib/built-in.o
                0x0000000060800ab4                interrupt_init
 .text.enable_interrupts
                0x0000000060800ad0        0x4 arch/arm/lib/built-in.o
                0x0000000060800ad0                enable_interrupts
 .text.disable_interrupts
                0x0000000060800ad4        0x8 arch/arm/lib/built-in.o
                0x0000000060800ad4                disable_interrupts
 .text.bad_mode
                0x0000000060800adc       0x10 arch/arm/lib/built-in.o
                0x0000000060800adc                bad_mode
 .text.show_regs
                0x0000000060800aec      0x174 arch/arm/lib/built-in.o
                0x0000000060800aec                show_regs
 .text.do_undefined_instruction
                0x0000000060800c60       0x20 arch/arm/lib/built-in.o
                0x0000000060800c60                do_undefined_instruction
 .text.do_software_interrupt
                0x0000000060800c80       0x20 arch/arm/lib/built-in.o
                0x0000000060800c80                do_software_interrupt
 .text.do_prefetch_abort
                0x0000000060800ca0       0x20 arch/arm/lib/built-in.o
                0x0000000060800ca0                do_prefetch_abort
 .text.do_data_abort
                0x0000000060800cc0       0x20 arch/arm/lib/built-in.o
                0x0000000060800cc0                do_data_abort
 .text.do_not_used
                0x0000000060800ce0       0x20 arch/arm/lib/built-in.o
                0x0000000060800ce0                do_not_used
 .text.do_fiq   0x0000000060800d00       0x20 arch/arm/lib/built-in.o
                0x0000000060800d00                do_fiq
 .text.do_irq   0x0000000060800d20       0x20 arch/arm/lib/built-in.o
                0x0000000060800d20                do_irq
 .text.reset_misc
                0x0000000060800d40        0x4 arch/arm/lib/built-in.o
                0x0000000060800d40                reset_misc
 .text.do_reset
                0x0000000060800d44       0x30 arch/arm/lib/built-in.o
                0x0000000060800d44                do_reset
 .text.enable_caches
                0x0000000060800d74        0xc arch/arm/lib/built-in.o
                0x0000000060800d74                enable_caches
 .text.cp_delay
                0x0000000060800d80       0x30 arch/arm/lib/built-in.o
 .text.arm_init_domains
                0x0000000060800db0        0x4 arch/arm/lib/built-in.o
                0x0000000060800db0                arm_init_domains
 .text.set_section_dcache
                0x0000000060800db4       0x14 arch/arm/lib/built-in.o
                0x0000000060800db4                set_section_dcache
 .text.dram_bank_mmu_setup
                0x0000000060800dc8       0x44 arch/arm/lib/built-in.o
                0x0000000060800dc8                dram_bank_mmu_setup
 .text.icache_enable
                0x0000000060800e0c       0x18 arch/arm/lib/built-in.o
                0x0000000060800e0c                icache_enable
 .text.icache_disable
                0x0000000060800e24       0x1c arch/arm/lib/built-in.o
                0x0000000060800e24                icache_disable
 .text.dcache_enable
                0x0000000060800e40       0x74 arch/arm/lib/built-in.o
                0x0000000060800e40                dcache_enable
 .text.dcache_disable
                0x0000000060800eb4       0x28 arch/arm/lib/built-in.o
                0x0000000060800eb4                dcache_disable
 .text.dcache_status
                0x0000000060800edc        0xc arch/arm/lib/built-in.o
                0x0000000060800edc                dcache_status
 .text.board_init
                0x0000000060800ee8       0x70 board/armltd/vexpress/built-in.o
                0x0000000060800ee8                board_init
 .text.board_eth_init
                0x0000000060800f58        0xc board/armltd/vexpress/built-in.o
                0x0000000060800f58                board_eth_init
 .text.cpu_mmc_init
                0x0000000060800f64       0x98 board/armltd/vexpress/built-in.o
                0x0000000060800f64                cpu_mmc_init
 .text.dram_init
                0x0000000060800ffc       0x20 board/armltd/vexpress/built-in.o
                0x0000000060800ffc                dram_init
 .text.dram_init_banksize
                0x000000006080101c       0x40 board/armltd/vexpress/built-in.o
                0x000000006080101c                dram_init_banksize
 .text.v2m_cfg_write
                0x000000006080105c       0x30 board/armltd/vexpress/built-in.o
                0x000000006080105c                v2m_cfg_write
 .text.reset_cpu
                0x000000006080108c       0x28 board/armltd/vexpress/built-in.o
                0x000000006080108c                reset_cpu
 .text.lowlevel_init
                0x00000000608010b4        0x4 board/armltd/vexpress/built-in.o
                0x00000000608010b4                lowlevel_init
 .text.get_board_rev
                0x00000000608010b8        0xc board/armltd/vexpress/built-in.o
                0x00000000608010b8                get_board_rev
 .text.show_boot_progress
                0x00000000608010c4        0x4 common/built-in.o
                0x00000000608010c4                show_boot_progress
 .text.main_loop
                0x00000000608010c8       0x20 common/built-in.o
                0x00000000608010c8                main_loop
 .text.dummy    0x00000000608010e8        0x4 common/built-in.o
 .text.get_version
                0x00000000608010ec        0x8 common/built-in.o
                0x00000000608010ec                get_version
 .text.jumptable_init
                0x00000000608010f4      0x1d0 common/built-in.o
                0x00000000608010f4                jumptable_init
 .text.hash_finish_crc32
                0x00000000608012c4       0x30 common/built-in.o
 .text.hash_update_crc32
                0x00000000608012f4       0x24 common/built-in.o
 .text.hash_init_crc32
                0x0000000060801318       0x24 common/built-in.o
 .text.hash_finish_sha256
                0x000000006080133c       0x38 common/built-in.o
 .text.hash_update_sha256
                0x0000000060801374       0x1c common/built-in.o
 .text.hash_init_sha256
                0x0000000060801390       0x24 common/built-in.o
 .text.hash_finish_sha1
                0x00000000608013b4       0x38 common/built-in.o
 .text.hash_update_sha1
                0x00000000608013ec       0x1c common/built-in.o
 .text.hash_init_sha1
                0x0000000060801408       0x24 common/built-in.o
 .text.hash_lookup_algo
                0x000000006080142c       0x58 common/built-in.o
                0x000000006080142c                hash_lookup_algo
 .text.hash_show
                0x0000000060801484       0x58 common/built-in.o
                0x0000000060801484                hash_show
 .text.hash_command
                0x00000000608014dc      0x180 common/built-in.o
                0x00000000608014dc                hash_command
 .text.b_reset  0x000000006080165c       0x1c common/built-in.o
 .text.static_get
                0x0000000060801678       0x1c common/built-in.o
 .text.static_peek
                0x0000000060801694        0xc common/built-in.o
 .text.file_peek
                0x00000000608016a0        0xc common/built-in.o
 .text.mapset   0x00000000608016ac       0x20 common/built-in.o
 .text.syntax_err
                0x00000000608016cc        0xc common/built-in.o
 .text.free_pipe_list
                0x00000000608016d8       0xf0 common/built-in.o
 .text.xmalloc  0x00000000608017c8       0x20 common/built-in.o
 .text.new_pipe
                0x00000000608017e8       0x28 common/built-in.o
 .text.xrealloc
                0x0000000060801810       0x20 common/built-in.o
 .text.done_command
                0x0000000060801830       0x8c common/built-in.o
 .text.done_pipe
                0x00000000608018bc       0x48 common/built-in.o
 .text.done_word
                0x0000000060801904      0x2d8 common/built-in.o
 .text.do_showvar
                0x0000000060801bdc       0xf0 common/built-in.o
 .text.is_assignment
                0x0000000060801ccc       0x54 common/built-in.o
 .text.file_get
                0x0000000060801d20      0x1d0 common/built-in.o
 .text.b_addchr
                0x0000000060801ef0       0x78 common/built-in.o
 .text.b_addqchr
                0x0000000060801f68       0x50 common/built-in.o
 .text.get_local_var
                0x0000000060801fb8       0x94 common/built-in.o
                0x0000000060801fb8                get_local_var
 .text.set_local_var
                0x000000006080204c      0x1a8 common/built-in.o
                0x000000006080204c                set_local_var
 .text.insert_var_value_sub
                0x00000000608021f4      0x2a8 common/built-in.o
 .text.parse_string_outer
                0x000000006080249c       0xe8 common/built-in.o
                0x000000006080249c                parse_string_outer
 .text.run_list_real
                0x0000000060802584      0x7ec common/built-in.o
 .text.parse_stream_outer
                0x0000000060802d70      0x6cc common/built-in.o
 .text.parse_file_outer
                0x000000006080343c       0x44 common/built-in.o
                0x000000006080343c                parse_file_outer
 .text.u_boot_hush_start
                0x0000000060803480       0x54 common/built-in.o
                0x0000000060803480                u_boot_hush_start
 .text.bootdelay_process
                0x00000000608034d4       0x50 common/built-in.o
                0x00000000608034d4                bootdelay_process
 .text.autoboot_command
                0x0000000060803524       0xd8 common/built-in.o
                0x0000000060803524                autoboot_command
 .text.print_cpuinfo
                0x00000000608035fc        0x8 common/built-in.o
 .text.display_text_info
                0x0000000060803604        0x8 common/built-in.o
 .text.setup_mon_len
                0x000000006080360c       0x20 common/built-in.o
 .text.arch_cpu_init
                0x000000006080362c        0x8 common/built-in.o
                0x000000006080362c                arch_cpu_init
 .text.reserve_round_4k
                0x0000000060803634       0x18 common/built-in.o
 .text.reserve_mmu
                0x000000006080364c       0x38 common/built-in.o
 .text.reserve_trace
                0x0000000060803684        0x8 common/built-in.o
 .text.reserve_uboot
                0x000000006080368c       0x30 common/built-in.o
 .text.reserve_malloc
                0x00000000608036bc       0x14 common/built-in.o
 .text.setup_machine
                0x00000000608036d0        0x8 common/built-in.o
 .text.reserve_global_data
                0x00000000608036d8       0x1c common/built-in.o
 .text.reserve_fdt
                0x00000000608036f4       0x4c common/built-in.o
 .text.display_new_sp
                0x0000000060803740        0x8 common/built-in.o
 .text.initf_dm
                0x0000000060803748        0x8 common/built-in.o
 .text.reserve_arch
                0x0000000060803750        0x8 common/built-in.o
                0x0000000060803750                reserve_arch
 .text.arch_cpu_init_dm
                0x0000000060803758        0x8 common/built-in.o
                0x0000000060803758                arch_cpu_init_dm
 .text.setup_reloc
                0x0000000060803760       0x2c common/built-in.o
 .text.reloc_fdt
                0x000000006080378c       0x30 common/built-in.o
 .text.announce_dram_init
                0x00000000608037bc       0x18 common/built-in.o
 .text.init_baud_rate
                0x00000000608037d4       0x28 common/built-in.o
 .text.mark_bootstage
                0x00000000608037fc       0x14 common/built-in.o
 .text.reserve_board
                0x0000000060803810       0x38 common/built-in.o
 .text.coloured_LED_init
                0x0000000060803848        0x4 common/built-in.o
                0x0000000060803848                coloured_LED_init
 .text.red_led_on
                0x000000006080384c        0x4 common/built-in.o
                0x000000006080384c                red_led_on
 .text.board_add_ram_info
                0x0000000060803850        0x4 common/built-in.o
                0x0000000060803850                board_add_ram_info
 .text.show_dram_config
                0x0000000060803854       0x4c common/built-in.o
 .text.setup_dram_config
                0x00000000608038a0       0x10 common/built-in.o
 .text.board_get_usable_ram_top
                0x00000000608038b0       0x14 common/built-in.o
                0x00000000608038b0                board_get_usable_ram_top
 .text.setup_dest_addr
                0x00000000608038c4       0x40 common/built-in.o
 .text.reserve_stacks
                0x0000000060803904       0x1c common/built-in.o
 .text.board_init_f
                0x0000000060803920       0x28 common/built-in.o
                0x0000000060803920                board_init_f
 .text.bootstage_relocate
                0x0000000060803948        0x8 common/built-in.o
 .text.initr_trace
                0x0000000060803950        0x8 common/built-in.o
 .text.initr_reloc_global_data
                0x0000000060803958       0x28 common/built-in.o
 .text.initr_barrier
                0x0000000060803980        0x8 common/built-in.o
 .text.power_init_board
                0x0000000060803988        0x8 common/built-in.o
                0x0000000060803988                power_init_board
 .text.initr_announce
                0x0000000060803990        0x8 common/built-in.o
 .text.run_main_loop
                0x0000000060803998        0xc common/built-in.o
 .text.initr_net
                0x00000000608039a4       0x1c common/built-in.o
 .text.initr_ethaddr
                0x00000000608039c0       0x20 common/built-in.o
 .text.initr_enable_interrupts
                0x00000000608039e0       0x10 common/built-in.o
 .text.initr_jumptable
                0x00000000608039f0       0x10 common/built-in.o
 .text.initr_env
                0x0000000060803a00       0x30 common/built-in.o
 .text.initr_mmc
                0x0000000060803a30       0x20 common/built-in.o
 .text.initr_serial
                0x0000000060803a50       0x10 common/built-in.o
 .text.initr_malloc
                0x0000000060803a60       0x1c common/built-in.o
 .text.initr_caches
                0x0000000060803a7c       0x10 common/built-in.o
 .text.initr_reloc
                0x0000000060803a8c       0x24 common/built-in.o
 .text.board_flash_wp_on
                0x0000000060803ab0        0x8 common/built-in.o
                0x0000000060803ab0                board_flash_wp_on
 .text.initr_flash
                0x0000000060803ab8       0x64 common/built-in.o
 .text.cpu_secondary_init_r
                0x0000000060803b1c        0x4 common/built-in.o
                0x0000000060803b1c                cpu_secondary_init_r
 .text.initr_secondary_cpu
                0x0000000060803b20       0x10 common/built-in.o
 .text.board_init_r
                0x0000000060803b30       0x14 common/built-in.o
                0x0000000060803b30                board_init_r
 .text.do_go_exec
                0x0000000060803b44       0x10 common/built-in.o
                0x0000000060803b44                do_go_exec
 .text.do_go    0x0000000060803b54       0x70 common/built-in.o
 .text.do_bootm
                0x0000000060803bc4      0x108 common/built-in.o
                0x0000000060803bc4                do_bootm
 .text.image_info
                0x0000000060803ccc      0x128 common/built-in.o
 .text.do_iminfo
                0x0000000060803df4       0x60 common/built-in.o
 .text.bootm_maybe_autostart
                0x0000000060803e54       0x78 common/built-in.o
                0x0000000060803e54                bootm_maybe_autostart
 .text.do_bootz
                0x0000000060803ecc       0xf8 common/built-in.o
                0x0000000060803ecc                do_bootz
 .text.bootm_find_images
                0x0000000060803fc4       0xd4 common/built-in.o
                0x0000000060803fc4                bootm_find_images
 .text.bootm_decomp_image
                0x0000000060804098      0x154 common/built-in.o
                0x0000000060804098                bootm_decomp_image
 .text.bootm_disable_interrupts
                0x00000000608041ec        0x4 common/built-in.o
                0x00000000608041ec                bootm_disable_interrupts
 .text.do_bootm_states
                0x00000000608041f0      0x8c0 common/built-in.o
                0x00000000608041f0                do_bootm_states
 .text.copy_args
                0x0000000060804ab0       0x50 common/built-in.o
 .text.do_bootm_rtems
                0x0000000060804b00       0x54 common/built-in.o
 .text.do_bootm_plan9
                0x0000000060804b54       0xb4 common/built-in.o
 .text.do_bootm_standalone
                0x0000000060804c08       0x64 common/built-in.o
 .text.do_bootm_qnxelf
                0x0000000060804c6c       0x6c common/built-in.o
 .text.do_bootm_netbsd
                0x0000000060804cd8      0x104 common/built-in.o
 .text.do_bootvx_fdt
                0x0000000060804ddc      0x10c common/built-in.o
                0x0000000060804ddc                do_bootvx_fdt
 .text.do_bootm_vxworks
                0x0000000060804ee8       0x38 common/built-in.o
 .text.arch_preboot_os
                0x0000000060804f20        0x4 common/built-in.o
                0x0000000060804f20                arch_preboot_os
 .text.boot_selected_os
                0x0000000060804f24       0x5c common/built-in.o
                0x0000000060804f24                boot_selected_os
 .text.bootm_os_get_boot_func
                0x0000000060804f80       0x10 common/built-in.o
                0x0000000060804f80                bootm_os_get_boot_func
 .text.do_help  0x0000000060804f90       0x48 common/built-in.o
 .text.do_version
                0x0000000060804fd8       0x38 common/built-in.o
 .text.regex_callback
                0x0000000060805010      0x134 common/built-in.o
 .text.env_attr_walk
                0x0000000060805144      0x118 common/built-in.o
                0x0000000060805144                env_attr_walk
 .text.env_attr_lookup
                0x000000006080525c       0x88 common/built-in.o
                0x000000006080525c                env_attr_lookup
 .text.clear_callback
                0x00000000608052e4       0x10 common/built-in.o
 .text.find_env_callback
                0x00000000608052f4       0x64 common/built-in.o
 .text.on_callbacks
                0x0000000060805358       0x50 common/built-in.o
 .text.set_callback
                0x00000000608053a8       0x94 common/built-in.o
 .text.env_callback_init
                0x000000006080543c       0xc4 common/built-in.o
                0x000000006080543c                env_callback_init
 .text.skip_num
                0x0000000060805500       0x74 common/built-in.o
 .text.clear_flags
                0x0000000060805574       0x10 common/built-in.o
 .text.on_flags
                0x0000000060805584       0x50 common/built-in.o
 .text.env_flags_parse_vartype
                0x00000000608055d4       0x50 common/built-in.o
                0x00000000608055d4                env_flags_parse_vartype
 .text.env_flags_parse_varaccess
                0x0000000060805624       0x58 common/built-in.o
                0x0000000060805624                env_flags_parse_varaccess
 .text.set_flags
                0x000000006080567c       0xac common/built-in.o
 .text.env_flags_init
                0x0000000060805728       0xd8 common/built-in.o
                0x0000000060805728                env_flags_init
 .text.env_flags_validate
                0x0000000060805800      0x308 common/built-in.o
                0x0000000060805800                env_flags_validate
 .text.env_init
                0x0000000060805b08       0x64 common/built-in.o
                0x0000000060805b08                env_init
 .text.saveenv  0x0000000060805b6c       0xb0 common/built-in.o
                0x0000000060805b6c                saveenv
 .text.env_relocate_spec
                0x0000000060805c1c       0x10 common/built-in.o
                0x0000000060805c1c                env_relocate_spec
 .text.source   0x0000000060805c2c      0x1c8 common/built-in.o
                0x0000000060805c2c                source
 .text.do_source
                0x0000000060805df4       0x78 common/built-in.o
 .text.print_num
                0x0000000060805e6c       0x18 common/built-in.o
 .text.do_bdinfo
                0x0000000060805e84      0x190 common/built-in.o
 .text.load_elf_image_shdr
                0x0000000060806014       0x8c common/built-in.o
 .text.valid_elf_image
                0x00000000608060a0       0x4c common/built-in.o
                0x00000000608060a0                valid_elf_image
 .text.do_bootelf
                0x00000000608060ec      0x1b4 common/built-in.o
                0x00000000608060ec                do_bootelf
 .text.do_bootvx
                0x00000000608062a0      0x29c common/built-in.o
                0x00000000608062a0                do_bootvx
 .text.do_exit  0x000000006080653c       0x30 common/built-in.o
 .text.do_fat_size
                0x000000006080656c       0x18 common/built-in.o
                0x000000006080656c                do_fat_size
 .text.do_fat_fsload
                0x0000000060806584       0x18 common/built-in.o
                0x0000000060806584                do_fat_fsload
 .text.do_fat_ls
                0x000000006080659c       0x18 common/built-in.o
 .text.do_fat_fsinfo
                0x00000000608065b4       0x90 common/built-in.o
 .text.fdt_valid
                0x0000000060806644       0xbc common/built-in.o
 .text.is_printable_string
                0x0000000060806700       0x88 common/built-in.o
 .text.print_data
                0x0000000060806788      0x170 common/built-in.o
 .text.set_working_fdt_addr
                0x00000000608068f8       0x1c common/built-in.o
                0x00000000608068f8                set_working_fdt_addr
 .text.do_fdt   0x0000000060806914      0xe80 common/built-in.o
 .text.fdt_find_and_setprop
                0x0000000060807794       0x70 common/built-in.o
                0x0000000060807794                fdt_find_and_setprop
 .text.fdt_find_or_add_subnode
                0x0000000060807804       0x68 common/built-in.o
                0x0000000060807804                fdt_find_or_add_subnode
 .text.fdt_root
                0x000000006080786c       0x98 common/built-in.o
                0x000000006080786c                fdt_root
 .text.fdt_initrd
                0x0000000060807904      0x1d0 common/built-in.o
                0x0000000060807904                fdt_initrd
 .text.fdt_chosen
                0x0000000060807ad4       0xa8 common/built-in.o
                0x0000000060807ad4                fdt_chosen
 .text.do_fixup_by_path
                0x0000000060807b7c       0x54 common/built-in.o
                0x0000000060807b7c                do_fixup_by_path
 .text.fdt_fixup_memory_banks
                0x0000000060807bd0      0x1d4 common/built-in.o
                0x0000000060807bd0                fdt_fixup_memory_banks
 .text.fdt_fixup_memory
                0x0000000060807da4       0x24 common/built-in.o
                0x0000000060807da4                fdt_fixup_memory
 .text.fdt_fixup_ethernet
                0x0000000060807dc8      0x158 common/built-in.o
                0x0000000060807dc8                fdt_fixup_ethernet
 .text.fdt_shrink_to_minimum
                0x0000000060807f20       0xd0 common/built-in.o
                0x0000000060807f20                fdt_shrink_to_minimum
 .text.flash_fill_sect_ranges
                0x0000000060807ff0      0x1bc common/built-in.o
 .text.abbrev_spec
                0x00000000608081ac      0x13c common/built-in.o
 .text.do_flinfo
                0x00000000608082e8       0x98 common/built-in.o
 .text.flash_sect_roundb
                0x0000000060808380       0xcc common/built-in.o
                0x0000000060808380                flash_sect_roundb
 .text.addr_spec
                0x000000006080844c       0xc0 common/built-in.o
 .text.flash_sect_erase
                0x000000006080850c       0xcc common/built-in.o
                0x000000006080850c                flash_sect_erase
 .text.do_flerase
                0x00000000608085d8      0x1d8 common/built-in.o
 .text.flash_sect_protect
                0x00000000608087b0      0x138 common/built-in.o
                0x00000000608087b0                flash_sect_protect
 .text.do_protect
                0x00000000608088e8      0x31c common/built-in.o
 .text.do_mem_mw
                0x0000000060808c04       0xc0 common/built-in.o
 .text.do_mem_loop
                0x0000000060808cc4      0x104 common/built-in.o
 .text.do_mem_md
                0x0000000060808dc8       0xe8 common/built-in.o
 .text.do_mem_cmp
                0x0000000060808eb0      0x170 common/built-in.o
 .text.do_mem_base
                0x0000000060809020       0x40 common/built-in.o
 .text.do_mem_cp
                0x0000000060809060      0x130 common/built-in.o
 .text.do_mem_crc
                0x0000000060809190       0x4c common/built-in.o
 .text.mod_mem.isra.2
                0x00000000608091dc      0x168 common/built-in.o
 .text.do_mem_mm
                0x0000000060809344        0x8 common/built-in.o
 .text.do_mem_nm
                0x000000006080934c        0x8 common/built-in.o
 .text.do_mmcops
                0x0000000060809354       0xb4 common/built-in.o
 .text.init_mmc_device
                0x0000000060809408       0x54 common/built-in.o
 .text.do_mmc_rescan
                0x000000006080945c       0x24 common/built-in.o
 .text.do_mmc_hwpartition
                0x0000000060809480      0x504 common/built-in.o
 .text.do_mmc_list
                0x0000000060809984       0x14 common/built-in.o
 .text.do_mmc_dev
                0x0000000060809998      0x134 common/built-in.o
 .text.do_mmc_part
                0x0000000060809acc       0x5c common/built-in.o
 .text.do_mmc_erase
                0x0000000060809b28       0xe8 common/built-in.o
 .text.do_mmc_write
                0x0000000060809c10      0x100 common/built-in.o
 .text.do_mmc_read
                0x0000000060809d10       0xec common/built-in.o
 .text.do_mmcinfo
                0x0000000060809dfc      0x378 common/built-in.o
 .text.do_mmc_setdsr
                0x000000006080a174       0xb0 common/built-in.o
 .text.netboot_common
                0x000000006080a224      0x2a0 common/built-in.o
 .text.do_bootp
                0x000000006080a4c4        0xc common/built-in.o
 .text.do_dhcp  0x000000006080a4d0        0xc common/built-in.o
 .text.do_tftpb
                0x000000006080a4dc       0x40 common/built-in.o
                0x000000006080a4dc                do_tftpb
 .text.do_ping  0x000000006080a51c       0x7c common/built-in.o
 .text.do_get_ext2
                0x000000006080a598        0x8 common/built-in.o
 .text.do_get_any
                0x000000006080a5a0        0x8 common/built-in.o
 .text.eol_or_eof
                0x000000006080a5a8       0x20 common/built-in.o
 .text.do_pxe   0x000000006080a5c8       0x74 common/built-in.o
 .text.label_print
                0x000000006080a63c       0x1c common/built-in.o
 .text.do_get_tftp
                0x000000006080a658       0x44 common/built-in.o
 .text.from_env
                0x000000006080a69c       0x2c common/built-in.o
 .text.get_string
                0x000000006080a6c8       0xc8 common/built-in.o
 .text.label_destroy
                0x000000006080a790       0x74 common/built-in.o
 .text.destroy_pxe_menu
                0x000000006080a804       0x5c common/built-in.o
 .text.get_token
                0x000000006080a860      0x120 common/built-in.o
 .text.parse_sliteral
                0x000000006080a980       0x54 common/built-in.o
 .text.parse_integer
                0x000000006080a9d4       0x70 common/built-in.o
 .text.do_get_fat
                0x000000006080aa44       0x3c common/built-in.o
 .text.format_mac_pxe.constprop.9
                0x000000006080aa80       0x78 common/built-in.o
 .text.get_relfile
                0x000000006080aaf8      0x13c common/built-in.o
 .text.get_pxe_file
                0x000000006080ac34       0x64 common/built-in.o
 .text.handle_include
                0x000000006080ac98       0xa4 common/built-in.o
 .text.parse_pxefile_top
                0x000000006080ad3c      0x470 common/built-in.o
 .text.parse_pxefile
                0x000000006080b1ac       0x6c common/built-in.o
 .text.get_pxelinux_path
                0x000000006080b218       0x80 common/built-in.o
 .text.do_pxe_get
                0x000000006080b298      0x164 common/built-in.o
 .text.get_relfile_envaddr
                0x000000006080b3fc       0x58 common/built-in.o
 .text.label_boot
                0x000000006080b454      0x584 common/built-in.o
 .text.handle_pxe_menu
                0x000000006080b9d8      0x164 common/built-in.o
 .text.do_pxe_boot
                0x000000006080bb3c       0xe0 common/built-in.o
 .text.do_sysboot
                0x000000006080bc1c      0x1e8 common/built-in.o
 .text.do_false
                0x000000006080be04        0x8 common/built-in.o
 .text.do_true  0x000000006080be0c        0x8 common/built-in.o
 .text.do_test  0x000000006080be14      0x34c common/built-in.o
 .text.flash_protect
                0x000000006080c160       0xe0 common/built-in.o
                0x000000006080c160                flash_protect
 .text.addr2info
                0x000000006080c240       0x8c common/built-in.o
                0x000000006080c240                addr2info
 .text.flash_write
                0x000000006080c2cc      0x148 common/built-in.o
                0x000000006080c2cc                flash_write
 .text.flash_perror
                0x000000006080c414       0xe8 common/built-in.o
                0x000000006080c414                flash_perror
 .text.menu_display_statusline
                0x000000006080c4fc        0x4 common/built-in.o
                0x000000006080c4fc                menu_display_statusline
 .text.menu_default_set
                0x000000006080c500       0x88 common/built-in.o
                0x000000006080c500                menu_default_set
 .text.menu_get_choice
                0x000000006080c588      0x1d8 common/built-in.o
                0x000000006080c588                menu_get_choice
 .text.menu_item_add
                0x000000006080c760       0xdc common/built-in.o
                0x000000006080c760                menu_item_add
 .text.menu_create
                0x000000006080c83c       0x90 common/built-in.o
                0x000000006080c83c                menu_create
 .text.menu_destroy
                0x000000006080c8cc       0x70 common/built-in.o
                0x000000006080c8cc                menu_destroy
 .text.do_env_delete
                0x000000006080c93c       0xa4 common/built-in.o
 .text.do_env_save
                0x000000006080c9e0       0x2c common/built-in.o
 .text.do_env   0x000000006080ca0c       0x64 common/built-in.o
 .text.env_print
                0x000000006080ca70       0xc0 common/built-in.o
 .text.do_env_print
                0x000000006080cb30       0xc8 common/built-in.o
 .text.do_env_import
                0x000000006080cbf8      0x280 common/built-in.o
 .text.do_env_default
                0x000000006080ce78       0xac common/built-in.o
 .text._do_env_set.isra.1
                0x000000006080cf24      0x1c4 common/built-in.o
 .text.do_env_set
                0x000000006080d0e8       0x20 common/built-in.o
 .text.get_env_id
                0x000000006080d108       0x10 common/built-in.o
                0x000000006080d108                get_env_id
 .text.setenv   0x000000006080d118       0x5c common/built-in.o
                0x000000006080d118                setenv
 .text.setenv_ulong
                0x000000006080d174       0x20 common/built-in.o
                0x000000006080d174                setenv_ulong
 .text.setenv_hex
                0x000000006080d194       0x34 common/built-in.o
                0x000000006080d194                setenv_hex
 .text.do_env_export
                0x000000006080d1c8      0x274 common/built-in.o
 .text.envmatch
                0x000000006080d43c       0x78 common/built-in.o
                0x000000006080d43c                envmatch
 .text.getenv_f
                0x000000006080d4b4       0xc8 common/built-in.o
                0x000000006080d4b4                getenv_f
 .text.getenv   0x000000006080d57c       0x78 common/built-in.o
                0x000000006080d57c                getenv
 .text.getenv_hex
                0x000000006080d5f4       0x3c common/built-in.o
                0x000000006080d5f4                getenv_hex
 .text.getenv_ulong
                0x000000006080d630       0x30 common/built-in.o
                0x000000006080d630                getenv_ulong
 .text.env_get_char_spec
                0x000000006080d660        0xc common/built-in.o
                0x000000006080d660                env_get_char_spec
 .text.env_get_addr
                0x000000006080d66c       0x20 common/built-in.o
                0x000000006080d66c                env_get_addr
 .text.env_get_char_memory
                0x000000006080d68c       0x10 common/built-in.o
                0x000000006080d68c                env_get_char_memory
 .text.env_get_char
                0x000000006080d69c       0x30 common/built-in.o
                0x000000006080d69c                env_get_char
 .text.getenv_yesno
                0x000000006080d6cc       0x48 common/built-in.o
                0x000000006080d6cc                getenv_yesno
 .text.getenv_default
                0x000000006080d714       0x30 common/built-in.o
                0x000000006080d714                getenv_default
 .text.set_default_env
                0x000000006080d744       0xc0 common/built-in.o
                0x000000006080d744                set_default_env
 .text.set_default_vars
                0x000000006080d804       0x3c common/built-in.o
                0x000000006080d804                set_default_vars
 .text.env_import
                0x000000006080d840       0xe4 common/built-in.o
                0x000000006080d840                env_import
 .text.env_export
                0x000000006080d924       0xa4 common/built-in.o
                0x000000006080d924                env_export
 .text.env_relocate
                0x000000006080d9c8       0x30 common/built-in.o
                0x000000006080d9c8                env_relocate
 .text.console_setfile
                0x000000006080d9f8       0xbc common/built-in.o
 .text.puts     0x000000006080dab4       0x34 common/built-in.o
                0x000000006080dab4                puts
 .text.printf   0x000000006080dae8       0x40 common/built-in.o
                0x000000006080dae8                printf
 .text.fgetc    0x000000006080db28       0x24 common/built-in.o
                0x000000006080db28                fgetc
 .text.getc     0x000000006080db4c       0x24 common/built-in.o
                0x000000006080db4c                getc
 .text.ftstc    0x000000006080db70       0x24 common/built-in.o
                0x000000006080db70                ftstc
 .text.tstc     0x000000006080db94       0x24 common/built-in.o
                0x000000006080db94                tstc
 .text.fputc    0x000000006080dbb8       0x1c common/built-in.o
                0x000000006080dbb8                fputc
 .text.putc     0x000000006080dbd4       0x28 common/built-in.o
                0x000000006080dbd4                putc
 .text.vprintf  0x000000006080dbfc       0x34 common/built-in.o
                0x000000006080dbfc                vprintf
 .text.ctrlc    0x000000006080dc30       0x58 common/built-in.o
                0x000000006080dc30                ctrlc
 .text.had_ctrlc
                0x000000006080dc88       0x10 common/built-in.o
                0x000000006080dc88                had_ctrlc
 .text.clear_ctrlc
                0x000000006080dc98       0x14 common/built-in.o
                0x000000006080dc98                clear_ctrlc
 .text.search_device
                0x000000006080dcac       0x28 common/built-in.o
                0x000000006080dcac                search_device
 .text.console_assign
                0x000000006080dcd4       0x44 common/built-in.o
                0x000000006080dcd4                console_assign
 .text.on_console
                0x000000006080dd18       0xb8 common/built-in.o
 .text.console_init_f
                0x000000006080ddd0       0x10 common/built-in.o
                0x000000006080ddd0                console_init_f
 .text.stdio_print_current_devices
                0x000000006080dde0       0xb0 common/built-in.o
                0x000000006080dde0                stdio_print_current_devices
 .text.console_init_r
                0x000000006080de90       0xd4 common/built-in.o
                0x000000006080de90                console_init_r
 .text.sbrk     0x000000006080df64       0x70 common/built-in.o
                0x000000006080df64                sbrk
 .text.mem_malloc_init
                0x000000006080dfd4       0x34 common/built-in.o
                0x000000006080dfd4                mem_malloc_init
 .text.malloc_trim
                0x000000006080e008       0xcc common/built-in.o
                0x000000006080e008                malloc_trim
 .text.free     0x000000006080e0d4      0x230 common/built-in.o
                0x000000006080e0d4                free
 .text.malloc   0x000000006080e304      0x5dc common/built-in.o
                0x000000006080e304                malloc
 .text.calloc   0x000000006080e8e0       0xdc common/built-in.o
                0x000000006080e8e0                calloc
 .text.realloc  0x000000006080e9bc      0x4b8 common/built-in.o
                0x000000006080e9bc                realloc
 .text.memalign
                0x000000006080ee74      0x10c common/built-in.o
                0x000000006080ee74                memalign
 .text.initf_malloc
                0x000000006080ef80        0x8 common/built-in.o
                0x000000006080ef80                initf_malloc
 .text.on_loadaddr
                0x000000006080ef88       0x38 common/built-in.o
 .text.image_check_hcrc
                0x000000006080efc0       0x4c common/built-in.o
                0x000000006080efc0                image_check_hcrc
 .text.image_check_dcrc
                0x000000006080f00c       0x38 common/built-in.o
                0x000000006080f00c                image_check_dcrc
 .text.image_multi_count
                0x000000006080f044       0x1c common/built-in.o
                0x000000006080f044                image_multi_count
 .text.image_multi_getimg
                0x000000006080f060       0x7c common/built-in.o
                0x000000006080f060                image_multi_getimg
 .text.getenv_bootm_low
                0x000000006080f0dc       0x30 common/built-in.o
                0x000000006080f0dc                getenv_bootm_low
 .text.getenv_bootm_size
                0x000000006080f10c       0x5c common/built-in.o
                0x000000006080f10c                getenv_bootm_size
 .text.getenv_bootm_mapsize
                0x000000006080f168       0x30 common/built-in.o
                0x000000006080f168                getenv_bootm_mapsize
 .text.memmove_wd
                0x000000006080f198        0xc common/built-in.o
                0x000000006080f198                memmove_wd
 .text.genimg_print_size
                0x000000006080f1a4       0x30 common/built-in.o
                0x000000006080f1a4                genimg_print_size
 .text.get_table_entry
                0x000000006080f1d4       0x24 common/built-in.o
                0x000000006080f1d4                get_table_entry
 .text.get_table_entry_name
                0x000000006080f1f8       0x20 common/built-in.o
                0x000000006080f1f8                get_table_entry_name
 .text.genimg_get_os_name
                0x000000006080f218       0x18 common/built-in.o
                0x000000006080f218                genimg_get_os_name
 .text.genimg_get_arch_name
                0x000000006080f230       0x18 common/built-in.o
                0x000000006080f230                genimg_get_arch_name
 .text.genimg_get_type_name
                0x000000006080f248       0x18 common/built-in.o
                0x000000006080f248                genimg_get_type_name
 .text.genimg_get_comp_name
                0x000000006080f260       0x18 common/built-in.o
                0x000000006080f260                genimg_get_comp_name
 .text.image_print_contents
                0x000000006080f278      0x16c common/built-in.o
                0x000000006080f278                image_print_contents
 .text.get_table_entry_id
                0x000000006080f3e4       0x50 common/built-in.o
                0x000000006080f3e4                get_table_entry_id
 .text.genimg_get_os_id
                0x000000006080f434       0x18 common/built-in.o
                0x000000006080f434                genimg_get_os_id
 .text.genimg_get_arch_id
                0x000000006080f44c       0x18 common/built-in.o
                0x000000006080f44c                genimg_get_arch_id
 .text.genimg_get_type_id
                0x000000006080f464       0x18 common/built-in.o
                0x000000006080f464                genimg_get_type_id
 .text.genimg_get_comp_id
                0x000000006080f47c       0x18 common/built-in.o
                0x000000006080f47c                genimg_get_comp_id
 .text.genimg_get_kernel_addr_fit
                0x000000006080f494       0x70 common/built-in.o
                0x000000006080f494                genimg_get_kernel_addr_fit
 .text.genimg_get_kernel_addr
                0x000000006080f504       0x24 common/built-in.o
                0x000000006080f504                genimg_get_kernel_addr
 .text.genimg_get_format
                0x000000006080f528       0x38 common/built-in.o
                0x000000006080f528                genimg_get_format
 .text.genimg_get_image
                0x000000006080f560        0x4 common/built-in.o
                0x000000006080f560                genimg_get_image
 .text.genimg_has_config
                0x000000006080f564       0x10 common/built-in.o
                0x000000006080f564                genimg_has_config
 .text.boot_get_ramdisk
                0x000000006080f574      0x37c common/built-in.o
                0x000000006080f574                boot_get_ramdisk
 .text.boot_ramdisk_high
                0x000000006080f8f0      0x128 common/built-in.o
                0x000000006080f8f0                boot_ramdisk_high
 .text.boot_get_setup
                0x000000006080fa18        0x4 common/built-in.o
                0x000000006080fa18                boot_get_setup
 .text.boot_get_loadable
                0x000000006080fa1c       0xd4 common/built-in.o
                0x000000006080fa1c                boot_get_loadable
 .text.image_setup_linux
                0x000000006080faf0       0x8c common/built-in.o
                0x000000006080faf0                image_setup_linux
 .text.fdt_error
                0x000000006080fb7c       0x2c common/built-in.o
 .text.boot_fdt_add_mem_rsv_regions
                0x000000006080fba8       0x88 common/built-in.o
                0x000000006080fba8                boot_fdt_add_mem_rsv_regions
 .text.boot_relocate_fdt
                0x000000006080fc30      0x194 common/built-in.o
                0x000000006080fc30                boot_relocate_fdt
 .text.boot_get_fdt
                0x000000006080fdc4      0x3d4 common/built-in.o
                0x000000006080fdc4                boot_get_fdt
 .text.ft_verify_fdt
                0x0000000060810198        0x8 common/built-in.o
                0x0000000060810198                ft_verify_fdt
 .text.image_setup_libfdt
                0x00000000608101a0      0x100 common/built-in.o
                0x00000000608101a0                image_setup_libfdt
 .text.fit_parse_conf
                0x00000000608102a0       0x64 common/built-in.o
                0x00000000608102a0                fit_parse_conf
 .text.fit_parse_subimage
                0x0000000060810304       0x64 common/built-in.o
                0x0000000060810304                fit_parse_subimage
 .text.fit_get_desc
                0x0000000060810368       0x30 common/built-in.o
                0x0000000060810368                fit_get_desc
 .text.fit_image_get_node
                0x0000000060810398       0x30 common/built-in.o
                0x0000000060810398                fit_image_get_node
 .text.fit_image_get_os
                0x00000000608103c8       0x3c common/built-in.o
                0x00000000608103c8                fit_image_get_os
 .text.fit_image_get_arch
                0x0000000060810404       0x3c common/built-in.o
                0x0000000060810404                fit_image_get_arch
 .text.fit_image_get_type
                0x0000000060810440       0x3c common/built-in.o
                0x0000000060810440                fit_image_get_type
 .text.fit_image_get_comp
                0x000000006081047c       0x3c common/built-in.o
                0x000000006081047c                fit_image_get_comp
 .text.fit_image_get_load
                0x00000000608104b8       0x38 common/built-in.o
                0x00000000608104b8                fit_image_get_load
 .text.fit_image_get_entry
                0x00000000608104f0       0x38 common/built-in.o
                0x00000000608104f0                fit_image_get_entry
 .text.fit_image_get_data
                0x0000000060810528       0x40 common/built-in.o
                0x0000000060810528                fit_image_get_data
 .text.fit_image_hash_get_algo
                0x0000000060810568       0x30 common/built-in.o
                0x0000000060810568                fit_image_hash_get_algo
 .text.fit_image_hash_get_value
                0x0000000060810598       0x40 common/built-in.o
                0x0000000060810598                fit_image_hash_get_value
 .text.fit_image_print_data
                0x00000000608105d8      0x140 common/built-in.o
 .text.fit_image_print
                0x0000000060810718      0x324 common/built-in.o
                0x0000000060810718                fit_image_print
 .text.calculate_hash
                0x0000000060810a3c       0xfc common/built-in.o
                0x0000000060810a3c                calculate_hash
 .text.fit_image_verify
                0x0000000060810b38      0x218 common/built-in.o
                0x0000000060810b38                fit_image_verify
 .text.fit_all_image_verify
                0x0000000060810d50       0xe4 common/built-in.o
                0x0000000060810d50                fit_all_image_verify
 .text.fit_image_check_os
                0x0000000060810e34       0x30 common/built-in.o
                0x0000000060810e34                fit_image_check_os
 .text.fit_image_check_arch
                0x0000000060810e64       0x44 common/built-in.o
                0x0000000060810e64                fit_image_check_arch
 .text.fit_image_check_type
                0x0000000060810ea8       0x30 common/built-in.o
                0x0000000060810ea8                fit_image_check_type
 .text.fit_image_check_comp
                0x0000000060810ed8       0x30 common/built-in.o
                0x0000000060810ed8                fit_image_check_comp
 .text.fit_check_format
                0x0000000060810f08       0x40 common/built-in.o
                0x0000000060810f08                fit_check_format
 .text.fit_conf_get_node
                0x0000000060810f48       0x68 common/built-in.o
                0x0000000060810f48                fit_conf_get_node
 .text.fit_conf_get_prop_node
                0x0000000060810fb0       0x2c common/built-in.o
                0x0000000060810fb0                fit_conf_get_prop_node
 .text.fit_conf_print
                0x0000000060810fdc      0x174 common/built-in.o
                0x0000000060810fdc                fit_conf_print
 .text.fit_print_contents
                0x0000000060811150      0x1e4 common/built-in.o
                0x0000000060811150                fit_print_contents
 .text.fit_get_node_from_config
                0x0000000060811334       0x44 common/built-in.o
                0x0000000060811334                fit_get_node_from_config
 .text.fit_image_load
                0x0000000060811378      0x540 common/built-in.o
                0x0000000060811378                fit_image_load
 .text.boot_get_setup_fit
                0x00000000608118b8       0x6c common/built-in.o
                0x00000000608118b8                boot_get_setup_fit
 .text.get_ram_size
                0x0000000060811924       0xfc common/built-in.o
                0x0000000060811924                get_ram_size
 .text.get_effective_memsize
                0x0000000060811a20        0x8 common/built-in.o
                0x0000000060811a20                get_effective_memsize
 .text.stdio_serial_tstc
                0x0000000060811a28        0x4 common/built-in.o
 .text.stdio_serial_getc
                0x0000000060811a2c        0x4 common/built-in.o
 .text.stdio_serial_puts
                0x0000000060811a30        0x8 common/built-in.o
 .text.stdio_serial_putc
                0x0000000060811a38        0x8 common/built-in.o
 .text.stdio_get_list
                0x0000000060811a40        0xc common/built-in.o
                0x0000000060811a40                stdio_get_list
 .text.stdio_get_by_name
                0x0000000060811a4c       0x4c common/built-in.o
                0x0000000060811a4c                stdio_get_by_name
 .text.stdio_clone
                0x0000000060811a98       0x40 common/built-in.o
                0x0000000060811a98                stdio_clone
 .text.stdio_register_dev
                0x0000000060811ad8       0x50 common/built-in.o
                0x0000000060811ad8                stdio_register_dev
 .text.stdio_register
                0x0000000060811b28        0x8 common/built-in.o
                0x0000000060811b28                stdio_register
 .text.stdio_init_tables
                0x0000000060811b30       0x1c common/built-in.o
                0x0000000060811b30                stdio_init_tables
 .text.stdio_add_devices
                0x0000000060811b4c       0x78 common/built-in.o
                0x0000000060811b4c                stdio_add_devices
 .text.cli_simple_process_macros
                0x0000000060811bc4      0x1e0 common/built-in.o
                0x0000000060811bc4                cli_simple_process_macros
 .text.run_command
                0x0000000060811da4       0x10 common/built-in.o
                0x0000000060811da4                run_command
 .text.run_command_list
                0x0000000060811db4       0x5c common/built-in.o
                0x0000000060811db4                run_command_list
 .text.do_run   0x0000000060811e10       0x78 common/built-in.o
                0x0000000060811e10                do_run
 .text.cli_loop
                0x0000000060811e88        0xc common/built-in.o
                0x0000000060811e88                cli_loop
 .text.cli_init
                0x0000000060811e94        0x4 common/built-in.o
                0x0000000060811e94                cli_init
 .text.delete_char.part.0
                0x0000000060811e98       0xd0 common/built-in.o
 .text.cread_add_char
                0x0000000060811f68       0xe8 common/built-in.o
 .text.cli_readline_into_buffer
                0x0000000060812050      0x904 common/built-in.o
                0x0000000060812050                cli_readline_into_buffer
 .text.cli_readline
                0x0000000060812954       0x14 common/built-in.o
                0x0000000060812954                cli_readline
 .text.find_cmd_tbl
                0x0000000060812968       0xa4 common/built-in.o
                0x0000000060812968                find_cmd_tbl
 .text.find_cmd
                0x0000000060812a0c       0x28 common/built-in.o
                0x0000000060812a0c                find_cmd
 .text.cmd_usage
                0x0000000060812a34       0x5c common/built-in.o
                0x0000000060812a34                cmd_usage
 .text._do_help
                0x0000000060812a90      0x184 common/built-in.o
                0x0000000060812a90                _do_help
 .text.cmd_get_data_size
                0x0000000060812c14       0x5c common/built-in.o
                0x0000000060812c14                cmd_get_data_size
 .text.cmd_process
                0x0000000060812c70       0xbc common/built-in.o
                0x0000000060812c70                cmd_process
 .text.get_dev_hwpart
                0x0000000060812d2c       0xa4 disk/built-in.o
 .text.dev_print
                0x0000000060812dd0      0x218 disk/built-in.o
                0x0000000060812dd0                dev_print
 .text.init_part
                0x0000000060812fe8       0x20 disk/built-in.o
                0x0000000060812fe8                init_part
 .text.print_part
                0x0000000060813008       0xf8 disk/built-in.o
                0x0000000060813008                print_part
 .text.get_partition_info
                0x0000000060813100       0x28 disk/built-in.o
                0x0000000060813100                get_partition_info
 .text.get_device
                0x0000000060813128      0x118 disk/built-in.o
                0x0000000060813128                get_device
 .text.get_device_and_partition
                0x0000000060813240      0x440 disk/built-in.o
                0x0000000060813240                get_device_and_partition
 .text.test_block_type
                0x0000000060813680       0x7c disk/built-in.o
 .text.print_partition_extended
                0x00000000608136fc      0x25c disk/built-in.o
 .text.get_partition_info_extended.constprop.2
                0x0000000060813958      0x2e8 disk/built-in.o
 .text.test_part_dos
                0x0000000060813c40       0x60 disk/built-in.o
                0x0000000060813c40                test_part_dos
 .text.print_part_dos
                0x0000000060813ca0       0x34 disk/built-in.o
                0x0000000060813ca0                print_part_dos
 .text.get_partition_info_dos
                0x0000000060813cd4       0x20 disk/built-in.o
                0x0000000060813cd4                get_partition_info_dos
 .text.mod_exp_sw
                0x0000000060813cf4       0x14 drivers/built-in.o
                0x0000000060813cf4                mod_exp_sw
 .text.mmc_host_reset
                0x0000000060813d08       0x18 drivers/mmc/built-in.o
 .text.host_set_ios
                0x0000000060813d20       0xf0 drivers/mmc/built-in.o
 .text.do_command
                0x0000000060813e10      0x120 drivers/mmc/built-in.o
 .text.host_request
                0x0000000060813f30      0x350 drivers/mmc/built-in.o
 .text.arm_pl180_mmci_init
                0x0000000060814280       0x9c drivers/mmc/built-in.o
                0x0000000060814280                arm_pl180_mmci_init
 .text.mmc_set_ios
                0x000000006081431c       0x18 drivers/mmc/built-in.o
 .text.mmc_set_capacity
                0x0000000060814334       0xac drivers/mmc/built-in.o
 .text.board_mmc_getwp
                0x00000000608143e0        0x8 drivers/mmc/built-in.o
                0x00000000608143e0                board_mmc_getwp
 .text.mmc_getwp
                0x00000000608143e8       0x3c drivers/mmc/built-in.o
                0x00000000608143e8                mmc_getwp
 .text.board_mmc_getcd
                0x0000000060814424        0x8 drivers/mmc/built-in.o
                0x0000000060814424                board_mmc_getcd
 .text.mmc_send_cmd
                0x000000006081442c       0x10 drivers/mmc/built-in.o
                0x000000006081442c                mmc_send_cmd
 .text.mmc_send_ext_csd
                0x000000006081443c       0x4c drivers/mmc/built-in.o
 .text.mmc_go_idle
                0x0000000060814488       0x4c drivers/mmc/built-in.o
 .text.mmc_send_op_cond_iter
                0x00000000608144d4       0x78 drivers/mmc/built-in.o
 .text.mmc_send_status
                0x000000006081454c       0xdc drivers/mmc/built-in.o
                0x000000006081454c                mmc_send_status
 .text.mmc_switch.isra.1
                0x0000000060814628       0x54 drivers/mmc/built-in.o
 .text.mmc_set_blocklen
                0x000000006081467c       0x40 drivers/mmc/built-in.o
                0x000000006081467c                mmc_set_blocklen
 .text.find_mmc_device
                0x00000000608146bc       0x4c drivers/mmc/built-in.o
                0x00000000608146bc                find_mmc_device
 .text.mmc_bread
                0x0000000060814708      0x13c drivers/mmc/built-in.o
 .text.mmc_switch_part
                0x0000000060814844       0x58 drivers/mmc/built-in.o
                0x0000000060814844                mmc_switch_part
 .text.mmc_select_hwpart
                0x000000006081489c       0x6c drivers/mmc/built-in.o
                0x000000006081489c                mmc_select_hwpart
 .text.mmc_hwpart_config
                0x0000000060814908      0x434 drivers/mmc/built-in.o
                0x0000000060814908                mmc_hwpart_config
 .text.mmc_getcd
                0x0000000060814d3c       0x3c drivers/mmc/built-in.o
                0x0000000060814d3c                mmc_getcd
 .text.mmc_set_clock
                0x0000000060814d78       0x24 drivers/mmc/built-in.o
                0x0000000060814d78                mmc_set_clock
 .text.mmc_startup
                0x0000000060814d9c      0xd24 drivers/mmc/built-in.o
 .text.mmc_create
                0x0000000060815ac0       0xf8 drivers/mmc/built-in.o
                0x0000000060815ac0                mmc_create
 .text.board_mmc_power_init
                0x0000000060815bb8        0x4 drivers/mmc/built-in.o
                0x0000000060815bb8                board_mmc_power_init
 .text.mmc_start_init
                0x0000000060815bbc      0x25c drivers/mmc/built-in.o
                0x0000000060815bbc                mmc_start_init
 .text.mmc_init
                0x0000000060815e18       0xf0 drivers/mmc/built-in.o
                0x0000000060815e18                mmc_init
 .text.mmc_get_dev
                0x0000000060815f08       0x2c drivers/mmc/built-in.o
                0x0000000060815f08                mmc_get_dev
 .text.mmc_set_dsr
                0x0000000060815f34        0xc drivers/mmc/built-in.o
                0x0000000060815f34                mmc_set_dsr
 .text.board_mmc_init
                0x0000000060815f40        0x8 drivers/mmc/built-in.o
                0x0000000060815f40                board_mmc_init
 .text.print_mmc_devices
                0x0000000060815f48       0xc0 drivers/mmc/built-in.o
                0x0000000060815f48                print_mmc_devices
 .text.get_mmc_num
                0x0000000060816008       0x10 drivers/mmc/built-in.o
                0x0000000060816008                get_mmc_num
 .text.mmc_initialize
                0x0000000060816018       0x98 drivers/mmc/built-in.o
                0x0000000060816018                mmc_initialize
 .text.mmc_berase
                0x00000000608160b0      0x18c drivers/mmc/built-in.o
                0x00000000608160b0                mmc_berase
 .text.mmc_bwrite
                0x000000006081623c      0x160 drivers/mmc/built-in.o
                0x000000006081623c                mmc_bwrite
 .text.flash_make_cmd
                0x000000006081639c       0x5c drivers/mtd/built-in.o
 .text.flash_isequal
                0x00000000608163f8       0xb0 drivers/mtd/built-in.o
 .text.flash_isset
                0x00000000608164a8       0xbc drivers/mtd/built-in.o
 .text.find_sector
                0x0000000060816564       0x8c drivers/mtd/built-in.o
 .text.cfi_reverse_geometry
                0x00000000608165f0       0xc4 drivers/mtd/built-in.o
 .text.flash_add_byte.isra.5
                0x00000000608166b4       0x90 drivers/mtd/built-in.o
 .text.cfi_flash_bank_addr
                0x0000000060816744       0x2c drivers/mtd/built-in.o
                0x0000000060816744                cfi_flash_bank_addr
 .text.cfi_flash_bank_size
                0x0000000060816770        0x8 drivers/mtd/built-in.o
                0x0000000060816770                cfi_flash_bank_size
 .text.flash_get_info
                0x0000000060816778       0x80 drivers/mtd/built-in.o
                0x0000000060816778                flash_get_info
 .text.flash_sector_size
                0x00000000608167f8       0x38 drivers/mtd/built-in.o
                0x00000000608167f8                flash_sector_size
 .text.flash_write_cmd
                0x0000000060816830       0x8c drivers/mtd/built-in.o
                0x0000000060816830                flash_write_cmd
 .text.flash_unlock_seq
                0x00000000608168bc       0x30 drivers/mtd/built-in.o
 .text.flash_status_check
                0x00000000608168ec      0x1a8 drivers/mtd/built-in.o
 .text.flash_full_status_check
                0x0000000060816a94      0x170 drivers/mtd/built-in.o
 .text.flash_write_cfiword
                0x0000000060816c04      0x20c drivers/mtd/built-in.o
 .text.flash_erase
                0x0000000060816e10      0x1c8 drivers/mtd/built-in.o
                0x0000000060816e10                flash_erase
 .text.flash_print_info
                0x0000000060816fd8      0x294 drivers/mtd/built-in.o
                0x0000000060816fd8                flash_print_info
 .text.write_buff
                0x000000006081726c      0x654 drivers/mtd/built-in.o
                0x000000006081726c                write_buff
 .text.flash_real_protect
                0x00000000608178c0      0x384 drivers/mtd/built-in.o
                0x00000000608178c0                flash_real_protect
 .text.__flash_cmd_reset
                0x0000000060817c44       0x38 drivers/mtd/built-in.o
                0x0000000060817c44                flash_cmd_reset
 .text.flash_get_size
                0x0000000060817c7c      0x948 drivers/mtd/built-in.o
                0x0000000060817c7c                flash_get_size
 .text.flash_protect_default
                0x00000000608185c4       0x58 drivers/mtd/built-in.o
                0x00000000608185c4                flash_protect_default
 .text.flash_init
                0x000000006081861c      0x140 drivers/mtd/built-in.o
                0x000000006081861c                flash_init
 .text.__smc911x_reg_read
                0x000000006081875c        0xc drivers/net/built-in.o
                0x000000006081875c                pkt_data_pull
                0x000000006081875c                smc911x_reg_read
 .text.__smc911x_reg_write
                0x0000000060818768        0xc drivers/net/built-in.o
                0x0000000060818768                pkt_data_push
                0x0000000060818768                smc911x_reg_write
 .text.smc911x_rx
                0x0000000060818774       0xac drivers/net/built-in.o
 .text.smc911x_send
                0x0000000060818820      0x110 drivers/net/built-in.o
 .text.smc911x_set_mac_csr
                0x0000000060818930       0x5c drivers/net/built-in.o
 .text.smc911x_handle_mac_address
                0x000000006081898c       0x60 drivers/net/built-in.o
 .text.smc911x_reset
                0x00000000608189ec       0xfc drivers/net/built-in.o
 .text.smc911x_halt
                0x0000000060818ae8       0x18 drivers/net/built-in.o
 .text.smc911x_get_mac_csr
                0x0000000060818b00       0x54 drivers/net/built-in.o
 .text.smc911x_eth_phy_write.constprop.0
                0x0000000060818b54       0x64 drivers/net/built-in.o
 .text.smc911x_init
                0x0000000060818bb8      0x164 drivers/net/built-in.o
 .text.smc911x_initialize
                0x0000000060818d1c      0x17c drivers/net/built-in.o
                0x0000000060818d1c                smc911x_initialize
 .text.serial_stub_start
                0x0000000060818e98        0xc drivers/serial/built-in.o
 .text.serial_stub_stop
                0x0000000060818ea4        0xc drivers/serial/built-in.o
 .text.serial_stub_putc
                0x0000000060818eb0       0x10 drivers/serial/built-in.o
 .text.serial_stub_puts
                0x0000000060818ec0       0x10 drivers/serial/built-in.o
 .text.serial_stub_getc
                0x0000000060818ed0        0xc drivers/serial/built-in.o
                0x0000000060818ed0                serial_stub_getc
 .text.serial_stub_tstc
                0x0000000060818edc        0xc drivers/serial/built-in.o
                0x0000000060818edc                serial_stub_tstc
 .text.get_current
                0x0000000060818ee8       0x40 drivers/serial/built-in.o
 .text.serial_null
                0x0000000060818f28        0x4 drivers/serial/built-in.o
                0x0000000060818f28                jz_serial_initialize
                0x0000000060818f28                bfin_serial_initialize
                0x0000000060818f28                p3mx_serial_initialize
                0x0000000060818f28                leon2_serial_initialize
                0x0000000060818f28                leon3_serial_initialize
                0x0000000060818f28                stm32_serial_initialize
                0x0000000060818f28                amirix_serial_initialize
                0x0000000060818f28                marvell_serial_initialize
                0x0000000060818f28                cpci750_serial_initialize
                0x0000000060818f28                ns16550_serial_initialize
                0x0000000060818f28                asc_serial_initialize
                0x0000000060818f28                altera_serial_initialize
                0x0000000060818f28                oc_serial_initialize
                0x0000000060818f28                sh_serial_initialize
                0x0000000060818f28                mxs_auart_initialize
                0x0000000060818f28                arm_dcc_initialize
                0x0000000060818f28                bmw_serial_initialize
                0x0000000060818f28                arc_serial_initialize
                0x0000000060818f28                mcf_serial_initialize
                0x0000000060818f28                lh7a40x_serial_initialize
                0x0000000060818f28                evb64260_serial_initialize
                0x0000000060818f28                lpc32xx_serial_initialize
                0x0000000060818f28                max3100_serial_initialize
                0x0000000060818f28                mpc85xx_serial_initialize
                0x0000000060818f28                imx_serial_initialize
                0x0000000060818f28                bfin_jtag_initialize
                0x0000000060818f28                cogent_serial_initialize
                0x0000000060818f28                clps7111_serial_initialize
                0x0000000060818f28                ml2_serial_initialize
                0x0000000060818f28                sandbox_serial_initialize
                0x0000000060818f28                s3c24xx_serial_initialize
                0x0000000060818f28                sconsole_serial_initialize
                0x0000000060818f28                uartlite_serial_initialize
                0x0000000060818f28                au1x00_serial_initialize
                0x0000000060818f28                pxa_serial_initialize
                0x0000000060818f28                atmel_serial_initialize
                0x0000000060818f28                altera_jtag_serial_initialize
                0x0000000060818f28                mpc512x_serial_initialize
                0x0000000060818f28                s5p_serial_initialize
                0x0000000060818f28                zynq_serial_initialize
                0x0000000060818f28                sa1100_serial_initialize
                0x0000000060818f28                mpc8260_scc_serial_initialize
                0x0000000060818f28                mxc_serial_initialize
                0x0000000060818f28                iop480_serial_initialize
                0x0000000060818f28                mpc8xx_serial_initialize
                0x0000000060818f28                mpc8260_smc_serial_initialize
                0x0000000060818f28                mpc5xx_serial_initialize
 .text.serial_register
                0x0000000060818f2c       0x18 drivers/serial/built-in.o
                0x0000000060818f2c                serial_register
 .text.serial_stdio_init
                0x0000000060818f44       0xa8 drivers/serial/built-in.o
                0x0000000060818f44                serial_stdio_init
 .text.serial_assign
                0x0000000060818fec       0x4c drivers/serial/built-in.o
                0x0000000060818fec                serial_assign
 .text.serial_initialize
                0x0000000060819038       0xd0 drivers/serial/built-in.o
                0x0000000060819038                serial_initialize
 .text.serial_init
                0x0000000060819108       0x20 drivers/serial/built-in.o
                0x0000000060819108                serial_init
 .text.serial_setbrg
                0x0000000060819128       0x14 drivers/serial/built-in.o
                0x0000000060819128                serial_setbrg
 .text.on_baudrate
                0x000000006081913c       0xec drivers/serial/built-in.o
 .text.serial_getc
                0x0000000060819228       0x14 drivers/serial/built-in.o
                0x0000000060819228                serial_getc
 .text.serial_tstc
                0x000000006081923c       0x14 drivers/serial/built-in.o
                0x000000006081923c                serial_tstc
 .text.serial_putc
                0x0000000060819250       0x1c drivers/serial/built-in.o
                0x0000000060819250                serial_putc
 .text.serial_puts
                0x000000006081926c       0x1c drivers/serial/built-in.o
                0x000000006081926c                serial_puts
 .text.default_serial_puts
                0x0000000060819288       0x30 drivers/serial/built-in.o
                0x0000000060819288                default_serial_puts
 .text.pl01x_serial_putc
                0x00000000608192b8       0x40 drivers/serial/built-in.o
 .text.pl01x_serial_getc
                0x00000000608192f8       0x30 drivers/serial/built-in.o
 .text.pl01x_serial_tstc
                0x0000000060819328       0x1c drivers/serial/built-in.o
 .text.pl01x_serial_init_baud
                0x0000000060819344      0x108 drivers/serial/built-in.o
 .text.pl01x_serial_init
                0x000000006081944c       0x14 drivers/serial/built-in.o
                0x000000006081944c                pl01x_serial_init
 .text.pl01x_serial_setbrg
                0x0000000060819460       0x34 drivers/serial/built-in.o
 .text.pl01x_serial_initialize
                0x0000000060819494        0xc drivers/serial/built-in.o
                0x0000000060819494                pl01x_serial_initialize
 .text.default_serial_console
                0x00000000608194a0        0xc drivers/serial/built-in.o
                0x00000000608194a0                default_serial_console
 .text.fs_probe_unsupported
                0x00000000608194ac       0x18 fs/built-in.o
 .text.fs_ls_unsupported
                0x00000000608194c4        0x8 fs/built-in.o
 .text.fs_exists_unsupported
                0x00000000608194cc        0x8 fs/built-in.o
 .text.fs_size_unsupported
                0x00000000608194d4        0x8 fs/built-in.o
 .text.fs_read_unsupported
                0x00000000608194dc        0x8 fs/built-in.o
 .text.fs_write_unsupported
                0x00000000608194e4        0x8 fs/built-in.o
 .text.fs_close_unsupported
                0x00000000608194ec        0x4 fs/built-in.o
 .text.fs_uuid_unsupported
                0x00000000608194f0        0x8 fs/built-in.o
 .text.fs_get_info
                0x00000000608194f8       0x20 fs/built-in.o
 .text.fs_close
                0x0000000060819518       0x28 fs/built-in.o
 .text.fs_set_blk_dev
                0x0000000060819540       0xb8 fs/built-in.o
                0x0000000060819540                fs_set_blk_dev
 .text.fs_ls    0x00000000608195f8       0x3c fs/built-in.o
                0x00000000608195f8                fs_ls
 .text.fs_exists
                0x0000000060819634       0x34 fs/built-in.o
                0x0000000060819634                fs_exists
 .text.fs_size  0x0000000060819668       0x3c fs/built-in.o
                0x0000000060819668                fs_size
 .text.fs_read  0x00000000608196a4       0xa8 fs/built-in.o
                0x00000000608196a4                fs_read
 .text.do_size  0x000000006081974c       0x60 fs/built-in.o
                0x000000006081974c                do_size
 .text.do_load  0x00000000608197ac      0x254 fs/built-in.o
                0x00000000608197ac                do_load
 .text.do_ls    0x0000000060819a00       0x68 fs/built-in.o
                0x0000000060819a00                do_ls
 .text.file_exists
                0x0000000060819a68       0x2c fs/built-in.o
                0x0000000060819a68                file_exists
 .text.downcase
                0x0000000060819a94       0x30 fs/built-in.o
 .text.disk_read
                0x0000000060819ac4       0x64 fs/built-in.o
 .text.dirdelim
                0x0000000060819b28       0x30 fs/built-in.o
 .text.get_fatent
                0x0000000060819b58      0x154 fs/built-in.o
 .text.mkcksum  0x0000000060819cac       0x54 fs/built-in.o
 .text.get_cluster
                0x0000000060819d00      0x178 fs/built-in.o
 .text.get_name
                0x0000000060819e78       0xac fs/built-in.o
 .text.read_bootsectandvi
                0x0000000060819f24      0x124 fs/built-in.o
 .text.slot2str
                0x000000006081a048       0xc0 fs/built-in.o
 .text.get_vfatname
                0x000000006081a108      0x1c0 fs/built-in.o
 .text.fat_set_blk_dev
                0x000000006081a2c8       0xd0 fs/built-in.o
                0x000000006081a2c8                fat_set_blk_dev
 .text.do_fat_read_at
                0x000000006081a398      0xcbc fs/built-in.o
                0x000000006081a398                do_fat_read_at
 .text.do_fat_read
                0x000000006081b054       0x3c fs/built-in.o
                0x000000006081b054                do_fat_read
 .text.file_fat_detectfs
                0x000000006081b090      0x148 fs/built-in.o
                0x000000006081b090                file_fat_detectfs
 .text.file_fat_ls
                0x000000006081b1d8       0x2c fs/built-in.o
                0x000000006081b1d8                file_fat_ls
 .text.fat_exists
                0x000000006081b204       0x44 fs/built-in.o
                0x000000006081b204                fat_exists
 .text.fat_size
                0x000000006081b248       0x38 fs/built-in.o
                0x000000006081b248                fat_size
 .text.file_fat_read_at
                0x000000006081b280       0x60 fs/built-in.o
                0x000000006081b280                file_fat_read_at
 .text.fat_read_file
                0x000000006081b2e0       0x48 fs/built-in.o
                0x000000006081b2e0                fat_read_file
 .text.fat_close
                0x000000006081b328        0x4 fs/built-in.o
                0x000000006081b328                fat_close
 .text.subtract_modulus
                0x000000006081b32c       0x50 lib/built-in.o
 .text.montgomery_mul
                0x000000006081b37c      0x170 lib/built-in.o
 .text.rsa_convert_big_endian
                0x000000006081b4ec       0x24 lib/built-in.o
 .text.rsa_mod_exp_sw
                0x000000006081b510      0x358 lib/built-in.o
                0x000000006081b510                rsa_mod_exp_sw
 .text.zcalloc  0x000000006081b868        0x8 lib/built-in.o
                0x000000006081b868                zcalloc
 .text.zcfree   0x000000006081b870        0x8 lib/built-in.o
                0x000000006081b870                zcfree
 .text.inflate_fast
                0x000000006081b878      0x57c lib/built-in.o
                0x000000006081b878                inflate_fast
 .text.inflate_table
                0x000000006081bdf4      0x560 lib/built-in.o
                0x000000006081bdf4                inflate_table
 .text.inflateReset
                0x000000006081c354       0x7c lib/built-in.o
                0x000000006081c354                inflateReset
 .text.inflateInit2_
                0x000000006081c3d0      0x104 lib/built-in.o
                0x000000006081c3d0                inflateInit2_
 .text.inflateEnd
                0x000000006081c4d4       0x64 lib/built-in.o
                0x000000006081c4d4                inflateEnd
 .text.adler32  0x000000006081c538      0x344 lib/built-in.o
                0x000000006081c538                adler32
 .text.inflate  0x000000006081c87c     0x14cc lib/built-in.o
                0x000000006081c87c                inflate
 .text.fdt_check_header
                0x000000006081dd48       0x78 lib/built-in.o
                0x000000006081dd48                fdt_check_header
 .text.fdt_offset_ptr
                0x000000006081ddc0       0x4c lib/built-in.o
                0x000000006081ddc0                fdt_offset_ptr
 .text.fdt_next_tag
                0x000000006081de0c       0xf8 lib/built-in.o
                0x000000006081de0c                fdt_next_tag
 .text._fdt_check_node_offset
                0x000000006081df04       0x3c lib/built-in.o
                0x000000006081df04                _fdt_check_node_offset
 .text._fdt_check_prop_offset
                0x000000006081df40       0x3c lib/built-in.o
                0x000000006081df40                _fdt_check_prop_offset
 .text.fdt_next_node
                0x000000006081df7c       0xc8 lib/built-in.o
                0x000000006081df7c                fdt_next_node
 .text.fdt_first_subnode
                0x000000006081e044       0x38 lib/built-in.o
                0x000000006081e044                fdt_first_subnode
 .text.fdt_next_subnode
                0x000000006081e07c       0x50 lib/built-in.o
                0x000000006081e07c                fdt_next_subnode
 .text._fdt_find_string
                0x000000006081e0cc       0x5c lib/built-in.o
                0x000000006081e0cc                _fdt_find_string
 .text.fdt_move
                0x000000006081e128       0x48 lib/built-in.o
                0x000000006081e128                fdt_move
 .text.fdt_path_next_seperator
                0x000000006081e170       0x4c lib/built-in.o
 .text._nextprop
                0x000000006081e1bc       0x5c lib/built-in.o
 .text.fdt_string
                0x000000006081e218       0x14 lib/built-in.o
                0x000000006081e218                fdt_string
 .text.fdt_get_mem_rsv
                0x000000006081e22c       0x5c lib/built-in.o
                0x000000006081e22c                fdt_get_mem_rsv
 .text.fdt_num_mem_rsv
                0x000000006081e288       0x38 lib/built-in.o
                0x000000006081e288                fdt_num_mem_rsv
 .text.fdt_subnode_offset_namelen
                0x000000006081e2c0       0xd4 lib/built-in.o
                0x000000006081e2c0                fdt_subnode_offset_namelen
 .text.fdt_subnode_offset
                0x000000006081e394       0x30 lib/built-in.o
                0x000000006081e394                fdt_subnode_offset
 .text.fdt_get_name
                0x000000006081e3c4       0x74 lib/built-in.o
                0x000000006081e3c4                fdt_get_name
 .text.fdt_first_property_offset
                0x000000006081e438       0x20 lib/built-in.o
                0x000000006081e438                fdt_first_property_offset
 .text.fdt_next_property_offset
                0x000000006081e458       0x20 lib/built-in.o
                0x000000006081e458                fdt_next_property_offset
 .text.fdt_get_property_by_offset
                0x000000006081e478       0x54 lib/built-in.o
                0x000000006081e478                fdt_get_property_by_offset
 .text.fdt_get_property_namelen
                0x000000006081e4cc       0xb8 lib/built-in.o
                0x000000006081e4cc                fdt_get_property_namelen
 .text.fdt_get_property
                0x000000006081e584       0x3c lib/built-in.o
                0x000000006081e584                fdt_get_property
 .text.fdt_getprop_namelen
                0x000000006081e5c0       0x20 lib/built-in.o
                0x000000006081e5c0                fdt_getprop_namelen
 .text.fdt_getprop
                0x000000006081e5e0       0x3c lib/built-in.o
                0x000000006081e5e0                fdt_getprop
 .text.fdt_get_alias_namelen
                0x000000006081e61c       0x4c lib/built-in.o
                0x000000006081e61c                fdt_get_alias_namelen
 .text.fdt_path_offset
                0x000000006081e668       0xe8 lib/built-in.o
                0x000000006081e668                fdt_path_offset
 .text.fdt_supernode_atdepth_offset
                0x000000006081e750       0xb8 lib/built-in.o
                0x000000006081e750                fdt_supernode_atdepth_offset
 .text.fdt_node_depth
                0x000000006081e808       0x28 lib/built-in.o
                0x000000006081e808                fdt_node_depth
 .text.fdt_get_string_index
                0x000000006081e830       0x64 lib/built-in.o
                0x000000006081e830                fdt_get_string_index
 .text._fdt_blocks_misordered
                0x000000006081e894       0x64 lib/built-in.o
 .text._fdt_splice
                0x000000006081e8f8       0x78 lib/built-in.o
 .text._fdt_splice_mem_rsv
                0x000000006081e970       0x58 lib/built-in.o
 .text._fdt_splice_struct
                0x000000006081e9c8       0x4c lib/built-in.o
 .text._fdt_packblocks
                0x000000006081ea14       0xa8 lib/built-in.o
 .text._fdt_find_add_string
                0x000000006081eabc       0xa8 lib/built-in.o
 .text._fdt_add_property
                0x000000006081eb64       0x98 lib/built-in.o
 .text._fdt_rw_check_header
                0x000000006081ebfc       0x60 lib/built-in.o
 .text.fdt_add_mem_rsv
                0x000000006081ec5c       0x94 lib/built-in.o
                0x000000006081ec5c                fdt_add_mem_rsv
 .text.fdt_del_mem_rsv
                0x000000006081ecf0       0x5c lib/built-in.o
                0x000000006081ecf0                fdt_del_mem_rsv
 .text.fdt_setprop
                0x000000006081ed4c       0xcc lib/built-in.o
                0x000000006081ed4c                fdt_setprop
 .text.fdt_delprop
                0x000000006081ee18       0x60 lib/built-in.o
                0x000000006081ee18                fdt_delprop
 .text.fdt_add_subnode_namelen
                0x000000006081ee78       0xf4 lib/built-in.o
                0x000000006081ee78                fdt_add_subnode_namelen
 .text.fdt_add_subnode
                0x000000006081ef6c       0x30 lib/built-in.o
                0x000000006081ef6c                fdt_add_subnode
 .text.fdt_del_node
                0x000000006081ef9c       0x60 lib/built-in.o
                0x000000006081ef9c                fdt_del_node
 .text.fdt_open_into
                0x000000006081effc      0x1a0 lib/built-in.o
                0x000000006081effc                fdt_open_into
 .text.fdt_strerror
                0x000000006081f19c       0x58 lib/built-in.o
                0x000000006081f19c                fdt_strerror
 .text._fdt_node_end_offset
                0x000000006081f1f4       0x44 lib/built-in.o
                0x000000006081f1f4                _fdt_node_end_offset
 .text.fdt_address_cells
                0x000000006081f238       0x50 lib/built-in.o
                0x000000006081f238                fdt_address_cells
 .text.fdt_size_cells
                0x000000006081f288       0x4c lib/built-in.o
                0x000000006081f288                fdt_size_cells
 .text.gzalloc  0x000000006081f2d4       0x10 lib/built-in.o
                0x000000006081f2d4                gzalloc
 .text.gzfree   0x000000006081f2e4        0x8 lib/built-in.o
                0x000000006081f2e4                gzfree
 .text.zunzip   0x000000006081f2ec      0x11c lib/built-in.o
                0x000000006081f2ec                zunzip
 .text.gunzip   0x000000006081f408       0xc8 lib/built-in.o
                0x000000006081f408                gunzip
 .text.initcall_run_list
                0x000000006081f4d0       0x60 lib/built-in.o
                0x000000006081f4d0                initcall_run_list
 .text.lmb_add_region
                0x000000006081f530      0x1b0 lib/built-in.o
 .text.lmb_init
                0x000000006081f6e0       0x28 lib/built-in.o
                0x000000006081f6e0                lmb_init
 .text.lmb_add  0x000000006081f708        0x4 lib/built-in.o
                0x000000006081f708                lmb_add
 .text.lmb_free
                0x000000006081f70c      0x10c lib/built-in.o
                0x000000006081f70c                lmb_free
 .text.lmb_reserve
                0x000000006081f818        0x8 lib/built-in.o
                0x000000006081f818                lmb_reserve
 .text.__lmb_alloc_base
                0x000000006081f820      0x158 lib/built-in.o
                0x000000006081f820                __lmb_alloc_base
 .text.lmb_alloc_base
                0x000000006081f978       0x34 lib/built-in.o
                0x000000006081f978                lmb_alloc_base
 .text.lmb_alloc
                0x000000006081f9ac        0x8 lib/built-in.o
                0x000000006081f9ac                lmb_alloc
 .text.board_lmb_reserve
                0x000000006081f9b4        0x4 lib/built-in.o
                0x000000006081f9b4                board_lmb_reserve
 .text.byteReverse
                0x000000006081f9b8       0x2c lib/built-in.o
 .text.MD5Transform
                0x000000006081f9e4      0xa08 lib/built-in.o
 .text.MD5Update
                0x00000000608203ec       0xe0 lib/built-in.o
 .text.MD5Final
                0x00000000608204cc       0xc4 lib/built-in.o
 .text.md5_wd   0x0000000060820590       0x68 lib/built-in.o
                0x0000000060820590                md5_wd
 .text.string_to_ip
                0x00000000608205f8       0x60 lib/built-in.o
                0x00000000608205f8                string_to_ip
 .text.qsort    0x0000000060820658       0xe4 lib/built-in.o
                0x0000000060820658                qsort
 .text.sha1_process
                0x000000006082073c     0x14d8 lib/built-in.o
 .text.sha1_update.part.0
                0x0000000060821c14       0xbc lib/built-in.o
 .text.sha1_starts
                0x0000000060821cd0       0x4c lib/built-in.o
                0x0000000060821cd0                sha1_starts
 .text.sha1_update
                0x0000000060821d1c        0xc lib/built-in.o
                0x0000000060821d1c                sha1_update
 .text.sha1_finish
                0x0000000060821d28      0x144 lib/built-in.o
                0x0000000060821d28                sha1_finish
 .text.sha1_csum_wd
                0x0000000060821e6c       0x40 lib/built-in.o
                0x0000000060821e6c                sha1_csum_wd
 .text.sha256_process
                0x0000000060821eac     0x245c lib/built-in.o
 .text.sha256_update.part.0
                0x0000000060824308       0xbc lib/built-in.o
 .text.sha256_starts
                0x00000000608243c4       0x70 lib/built-in.o
                0x00000000608243c4                sha256_starts
 .text.sha256_update
                0x0000000060824434        0xc lib/built-in.o
                0x0000000060824434                sha256_update
 .text.sha256_finish
                0x0000000060824440      0x1b0 lib/built-in.o
                0x0000000060824440                sha256_finish
 .text.sha256_csum_wd
                0x00000000608245f0       0x40 lib/built-in.o
                0x00000000608245f0                sha256_csum_wd
 .text.cmpkey   0x0000000060824630       0x14 lib/built-in.o
 .text._hdelete.isra.1
                0x0000000060824644       0x50 lib/built-in.o
 .text.drop_var_from_set.part.2
                0x0000000060824694       0x50 lib/built-in.o
 .text.match_string
                0x00000000608246e4       0xb4 lib/built-in.o
 .text.match_entry
                0x0000000060824798       0xc0 lib/built-in.o
 .text.hcreate_r
                0x0000000060824858       0xac lib/built-in.o
                0x0000000060824858                hcreate_r
 .text.hdestroy_r
                0x0000000060824904       0x74 lib/built-in.o
                0x0000000060824904                hdestroy_r
 .text.hsearch_r
                0x0000000060824978      0x498 lib/built-in.o
                0x0000000060824978                hsearch_r
 .text.hdelete_r
                0x0000000060824e10       0xd4 lib/built-in.o
                0x0000000060824e10                hdelete_r
 .text.hexport_r
                0x0000000060824ee4      0x2c4 lib/built-in.o
                0x0000000060824ee4                hexport_r
 .text.himport_r
                0x00000000608251a8      0x3c8 lib/built-in.o
                0x00000000608251a8                himport_r
 .text.hwalk_r  0x0000000060825570       0x58 lib/built-in.o
                0x0000000060825570                hwalk_r
 .text.display_options
                0x00000000608255c8       0x20 lib/built-in.o
                0x00000000608255c8                display_options
 .text.print_size
                0x00000000608255e8      0x134 lib/built-in.o
                0x00000000608255e8                print_size
 .text.print_buffer
                0x000000006082571c      0x1c0 lib/built-in.o
                0x000000006082571c                print_buffer
 .text.crc32_no_comp
                0x00000000608258dc       0xd8 lib/built-in.o
                0x00000000608258dc                crc32_no_comp
 .text.crc32    0x00000000608259b4       0x14 lib/built-in.o
                0x00000000608259b4                crc32
 .text.crc32_wd
                0x00000000608259c8        0x4 lib/built-in.o
                0x00000000608259c8                crc32_wd
 .text.crc32_wd_buf
                0x00000000608259cc       0x40 lib/built-in.o
                0x00000000608259cc                crc32_wd_buf
 .text.__div64_32
                0x0000000060825a0c       0xd0 lib/built-in.o
                0x0000000060825a0c                __div64_32
 .text.hang     0x0000000060825adc       0x1c lib/built-in.o
                0x0000000060825adc                hang
 .text.skip_spaces
                0x0000000060825af8       0x28 lib/built-in.o
                0x0000000060825af8                skip_spaces
 .text.strim    0x0000000060825b20       0x60 lib/built-in.o
                0x0000000060825b20                strim
 .text.emit     0x0000000060825b80       0x24 lib/built-in.o
 .text.store_char_in_data
                0x0000000060825ba4       0x28 lib/built-in.o
 .text.get_escape_char
                0x0000000060825bcc       0x84 lib/built-in.o
 .text.match    0x0000000060825c50      0x3f8 lib/built-in.o
 .text.loop_greedy
                0x0000000060826048       0x90 lib/built-in.o
 .text.loop_non_greedy
                0x00000000608260d8       0x80 lib/built-in.o
 .text.fixup_branch
                0x0000000060826158       0x3c lib/built-in.o
 .text.quantifier
                0x0000000060826194       0xb8 lib/built-in.o
 .text.compile  0x000000006082624c      0x398 lib/built-in.o
 .text.slre_compile
                0x00000000608265e4       0xd4 lib/built-in.o
                0x00000000608265e4                slre_compile
 .text.slre_match
                0x00000000608266b8       0x98 lib/built-in.o
                0x00000000608266b8                slre_match
 .text.strncasecmp
                0x0000000060826750       0x84 lib/built-in.o
                0x0000000060826750                strncasecmp
 .text.strcasecmp
                0x00000000608267d4        0x8 lib/built-in.o
                0x00000000608267d4                strcasecmp
 .text.strcpy   0x00000000608267dc       0x18 lib/built-in.o
                0x00000000608267dc                strcpy
 .text.strncpy  0x00000000608267f4       0x24 lib/built-in.o
                0x00000000608267f4                strncpy
 .text.strcat   0x0000000060826818       0x2c lib/built-in.o
                0x0000000060826818                strcat
 .text.strncat  0x0000000060826844       0x58 lib/built-in.o
                0x0000000060826844                strncat
 .text.strcmp   0x000000006082689c       0x28 lib/built-in.o
                0x000000006082689c                strcmp
 .text.strncmp  0x00000000608268c4       0x40 lib/built-in.o
                0x00000000608268c4                strncmp
 .text.strchr   0x0000000060826904       0x2c lib/built-in.o
                0x0000000060826904                strchr
 .text.strlen   0x0000000060826930       0x20 lib/built-in.o
                0x0000000060826930                strlen
 .text.strrchr  0x0000000060826950       0x3c lib/built-in.o
                0x0000000060826950                strrchr
 .text.strnlen  0x000000006082698c       0x30 lib/built-in.o
                0x000000006082698c                strnlen
 .text.strdup   0x00000000608269bc       0x3c lib/built-in.o
                0x00000000608269bc                strdup
 .text.memset   0x00000000608269f8       0x60 lib/built-in.o
                0x00000000608269f8                memset
 .text.memcpy   0x0000000060826a58       0x60 lib/built-in.o
                0x0000000060826a58                memcpy
 .text.memmove  0x0000000060826ab8       0x54 lib/built-in.o
                0x0000000060826ab8                memmove
 .text.memcmp   0x0000000060826b0c       0x34 lib/built-in.o
                0x0000000060826b0c                memcmp
 .text.strstr   0x0000000060826b40       0x68 lib/built-in.o
                0x0000000060826b40                strstr
 .text.memchr   0x0000000060826ba8       0x30 lib/built-in.o
                0x0000000060826ba8                memchr
 .text.get_tbclk
                0x0000000060826bd8        0xc lib/built-in.o
                0x0000000060826bd8                get_tbclk
 .text.get_ticks
                0x0000000060826be4       0x48 lib/built-in.o
                0x0000000060826be4                get_ticks
 .text.timer_init
                0x0000000060826c2c        0x8 lib/built-in.o
                0x0000000060826c2c                timer_init
 .text.get_timer
                0x0000000060826c34       0x68 lib/built-in.o
                0x0000000060826c34                get_timer
 .text.__udelay
                0x0000000060826c9c       0x84 lib/built-in.o
                0x0000000060826c9c                __udelay
 .text.udelay   0x0000000060826d20       0x30 lib/built-in.o
                0x0000000060826d20                udelay
 .text.mdelay   0x0000000060826d50       0x24 lib/built-in.o
                0x0000000060826d50                mdelay
 .text.uuid_str_valid
                0x0000000060826d74       0x90 lib/built-in.o
                0x0000000060826d74                uuid_str_valid
 .text.uuid_str_to_bin
                0x0000000060826e04      0x188 lib/built-in.o
                0x0000000060826e04                uuid_str_to_bin
 .text.put_dec_trunc
                0x0000000060826f8c       0xe0 lib/built-in.o
 .text.put_dec  0x000000006082706c      0x134 lib/built-in.o
 .text.panic_finish
                0x00000000608271a0       0x30 lib/built-in.o
 .text.string.isra.0
                0x00000000608271d0       0x90 lib/built-in.o
 .text.number.isra.4
                0x0000000060827260      0x260 lib/built-in.o
 .text.vsnprintf_internal.isra.6
                0x00000000608274c0      0x61c lib/built-in.o
 .text.simple_strtoul
                0x0000000060827adc       0xb8 lib/built-in.o
                0x0000000060827adc                simple_strtoul
 .text.strict_strtoul
                0x0000000060827b94       0x7c lib/built-in.o
                0x0000000060827b94                strict_strtoul
 .text.simple_strtol
                0x0000000060827c10       0x28 lib/built-in.o
                0x0000000060827c10                simple_strtol
 .text.ustrtoul
                0x0000000060827c38       0x70 lib/built-in.o
                0x0000000060827c38                ustrtoul
 .text.simple_strtoull
                0x0000000060827ca8       0xdc lib/built-in.o
                0x0000000060827ca8                simple_strtoull
 .text.ustrtoull
                0x0000000060827d84       0x88 lib/built-in.o
                0x0000000060827d84                ustrtoull
 .text.vsprintf
                0x0000000060827e0c        0x4 lib/built-in.o
                0x0000000060827e0c                vsprintf
 .text.sprintf  0x0000000060827e10       0x28 lib/built-in.o
                0x0000000060827e10                sprintf
 .text.panic    0x0000000060827e38       0x1c lib/built-in.o
                0x0000000060827e38                panic
 .text.simple_itoa
                0x0000000060827e54       0x54 lib/built-in.o
                0x0000000060827e54                simple_itoa
 .text.compute_ip_checksum
                0x0000000060827ea8       0x68 net/built-in.o
                0x0000000060827ea8                compute_ip_checksum
 .text.ip_checksum_ok
                0x0000000060827f10       0x1c net/built-in.o
                0x0000000060827f10                ip_checksum_ok
 .text.arp_init
                0x0000000060827f2c       0x50 net/built-in.o
                0x0000000060827f2c                arp_init
 .text.arp_raw_request
                0x0000000060827f7c       0xc4 net/built-in.o
                0x0000000060827f7c                arp_raw_request
 .text.arp_request
                0x0000000060828040       0x80 net/built-in.o
                0x0000000060828040                arp_request
 .text.arp_timeout_check
                0x00000000608280c0       0x80 net/built-in.o
                0x00000000608280c0                arp_timeout_check
 .text.arp_receive
                0x0000000060828140      0x210 net/built-in.o
                0x0000000060828140                arp_receive
 .text.dhcp_extended
                0x0000000060828350      0x1f4 net/built-in.o
 .text.dhcp_process_options
                0x0000000060828544      0x210 net/built-in.o
 .text.dhcp_handler
                0x0000000060828754      0x394 net/built-in.o
 .text.bootp_reset
                0x0000000060828ae8       0x44 net/built-in.o
                0x0000000060828ae8                bootp_reset
 .text.bootp_request
                0x0000000060828b2c      0x240 net/built-in.o
                0x0000000060828b2c                bootp_request
 .text.bootp_timeout_handler
                0x0000000060828d6c       0x68 net/built-in.o
 .text.dhcp_request
                0x0000000060828dd4        0x4 net/built-in.o
                0x0000000060828dd4                dhcp_request
 .text.__def_eth_init
                0x0000000060828dd8        0x8 net/built-in.o
                0x0000000060828dd8                cpu_eth_init
 .text.eth_parse_enetaddr
                0x0000000060828de0       0x58 net/built-in.o
                0x0000000060828de0                eth_parse_enetaddr
 .text.on_ethaddr
                0x0000000060828e38       0x90 net/built-in.o
 .text.eth_getenv_enetaddr
                0x0000000060828ec8       0x5c net/built-in.o
                0x0000000060828ec8                eth_getenv_enetaddr
 .text.eth_setenv_enetaddr
                0x0000000060828f24       0x34 net/built-in.o
                0x0000000060828f24                eth_setenv_enetaddr
 .text.eth_getenv_enetaddr_by_index
                0x0000000060828f58       0x50 net/built-in.o
                0x0000000060828f58                eth_getenv_enetaddr_by_index
 .text.eth_get_dev_by_name
                0x0000000060828fa8       0x84 net/built-in.o
                0x0000000060828fa8                eth_get_dev_by_name
 .text.eth_get_dev_by_index
                0x000000006082902c       0x48 net/built-in.o
                0x000000006082902c                eth_get_dev_by_index
 .text.eth_get_dev_index
                0x0000000060829074       0x1c net/built-in.o
                0x0000000060829074                eth_get_dev_index
 .text.eth_write_hwaddr
                0x0000000060829090      0x248 net/built-in.o
                0x0000000060829090                eth_write_hwaddr
 .text.eth_halt
                0x00000000608292d8       0x30 net/built-in.o
                0x00000000608292d8                eth_halt
 .text.eth_send
                0x0000000060829308       0x38 net/built-in.o
                0x0000000060829308                eth_send
 .text.eth_rx   0x0000000060829340       0x24 net/built-in.o
                0x0000000060829340                eth_rx
 .text.eth_get_name
                0x0000000060829364       0x20 net/built-in.o
                0x0000000060829364                eth_get_name
 .text.eth_current_changed
                0x0000000060829384       0x6c net/built-in.o
 .text.eth_register
                0x00000000608293f0       0x7c net/built-in.o
                0x00000000608293f0                eth_register
 .text.eth_initialize
                0x000000006082946c      0x18c net/built-in.o
                0x000000006082946c                eth_initialize
 .text.eth_try_another
                0x00000000608295f8       0x84 net/built-in.o
                0x00000000608295f8                eth_try_another
 .text.eth_init
                0x000000006082967c       0x7c net/built-in.o
                0x000000006082967c                eth_init
 .text.eth_set_current
                0x00000000608296f8       0x98 net/built-in.o
                0x00000000608296f8                eth_set_current
 .text.start_again_timeout_handler
                0x0000000060829790       0x14 net/built-in.o
 .text.dummy_handler
                0x00000000608297a4        0x4 net/built-in.o
 .text.on_ipaddr
                0x00000000608297a8       0x30 net/built-in.o
 .text.on_gatewayip
                0x00000000608297d8       0x30 net/built-in.o
 .text.on_netmask
                0x0000000060829808       0x30 net/built-in.o
 .text.on_serverip
                0x0000000060829838       0x30 net/built-in.o
 .text.net_init_loop
                0x0000000060829868       0x28 net/built-in.o
 .text.net_clear_handlers
                0x0000000060829890       0x34 net/built-in.o
 .text.net_auto_load
                0x00000000608298c4       0x38 net/built-in.o
                0x00000000608298c4                net_auto_load
 .text.net_init
                0x00000000608298fc       0x70 net/built-in.o
                0x00000000608298fc                net_init
 .text.net_start_again
                0x000000006082996c      0x168 net/built-in.o
                0x000000006082996c                net_start_again
 .text.net_loop
                0x0000000060829ad4      0x344 net/built-in.o
                0x0000000060829ad4                net_loop
 .text.net_set_udp_handler
                0x0000000060829e18       0x20 net/built-in.o
                0x0000000060829e18                net_set_udp_handler
 .text.net_get_arp_handler
                0x0000000060829e38       0x10 net/built-in.o
                0x0000000060829e38                net_get_arp_handler
 .text.net_set_timeout_handler
                0x0000000060829e48       0x4c net/built-in.o
                0x0000000060829e48                net_set_timeout_handler
 .text.net_process_received_packet
                0x0000000060829e94      0x280 net/built-in.o
                0x0000000060829e94                net_process_received_packet
 .text.net_eth_hdr_size
                0x000000006082a114       0x38 net/built-in.o
                0x000000006082a114                net_eth_hdr_size
 .text.net_set_ether
                0x000000006082a14c       0x98 net/built-in.o
                0x000000006082a14c                net_set_ether
 .text.net_update_ether
                0x000000006082a1e4       0x78 net/built-in.o
                0x000000006082a1e4                net_update_ether
 .text.net_set_ip_header
                0x000000006082a25c       0x8c net/built-in.o
                0x000000006082a25c                net_set_ip_header
 .text.net_set_udp_header
                0x000000006082a2e8       0x84 net/built-in.o
                0x000000006082a2e8                net_set_udp_header
 .text.net_send_udp_packet
                0x000000006082a36c      0x114 net/built-in.o
                0x000000006082a36c                net_send_udp_packet
 .text.copy_filename
                0x000000006082a480       0x48 net/built-in.o
                0x000000006082a480                copy_filename
 .text.on_bootfile
                0x000000006082a4c8       0x34 net/built-in.o
 .text.ip_to_string
                0x000000006082a4fc       0x38 net/built-in.o
                0x000000006082a4fc                ip_to_string
 .text.string_to_vlan
                0x000000006082a534       0x44 net/built-in.o
                0x000000006082a534                string_to_vlan
 .text.on_nvlan
                0x000000006082a578       0x30 net/built-in.o
 .text.on_vlan  0x000000006082a5a8       0x30 net/built-in.o
 .text.ping_timeout_handler
                0x000000006082a5d8       0x1c net/built-in.o
 .text.ping_start
                0x000000006082a5f4      0x118 net/built-in.o
                0x000000006082a5f4                ping_start
 .text.ping_receive
                0x000000006082a70c       0xdc net/built-in.o
                0x000000006082a70c                ping_receive
 .text.tftp_send
                0x000000006082a7e8      0x1c4 net/built-in.o
 .text.tftp_handler
                0x000000006082a9ac      0x38c net/built-in.o
 .text.tftp_timeout_handler
                0x000000006082ad38       0x88 net/built-in.o
 .text.tftp_start
                0x000000006082adc0      0x33c net/built-in.o
                0x000000006082adc0                tftp_start
 .text.raise    0x000000006082b0fc       0x1c arch/arm/lib/eabi_compat.o
                0x000000006082b0fc                raise
 .text          0x000000006082b118      0x278 /usr/lib/gcc-cross/arm-linux-gnueabihf/4.8/sf/libgcc.a(_udivsi3.o)
                0x000000006082b118                __udivsi3
                0x000000006082b118                __aeabi_uidiv
                0x000000006082b374                __aeabi_uidivmod
 .text          0x000000006082b390      0x2b0 /usr/lib/gcc-cross/arm-linux-gnueabihf/4.8/sf/libgcc.a(_divsi3.o)
                0x000000006082b390                __aeabi_idiv
                0x000000006082b390                __divsi3
                0x000000006082b624                __aeabi_idivmod
 .text          0x000000006082b640       0x18 /usr/lib/gcc-cross/arm-linux-gnueabihf/4.8/sf/libgcc.a(_lshrdi3.o)
                0x000000006082b640                __aeabi_llsr
                0x000000006082b640                __lshrdi3
 .text          0x000000006082b658       0x18 /usr/lib/gcc-cross/arm-linux-gnueabihf/4.8/sf/libgcc.a(_ashldi3.o)
                0x000000006082b658                __ashldi3
                0x000000006082b658                __aeabi_llsl
 .text          0x000000006082b670        0xc /usr/lib/gcc-cross/arm-linux-gnueabihf/4.8/sf/libgcc.a(_dvmd_lnx.o)
                0x000000006082b670                __aeabi_ldiv0
                0x000000006082b670                __aeabi_idiv0

.glue_7         0x000000006082b67c        0x0
 .glue_7        0x0000000000000000        0x0 linker stubs

.glue_7t        0x000000006082b67c        0x0
 .glue_7t       0x0000000000000000        0x0 linker stubs

.vfp11_veneer   0x000000006082b67c        0x0
 .vfp11_veneer  0x0000000000000000        0x0 linker stubs

.v4_bx          0x000000006082b67c        0x0
 .v4_bx         0x0000000000000000        0x0 linker stubs

.iplt           0x000000006082b67c        0x0
 .iplt          0x0000000000000000        0x0 arch/arm/cpu/armv7/start.o
                0x000000006082b67c                . = ALIGN (0x4)

.rodata         0x000000006082b67c     0x948a
 *(SORT(.rodata*))
 .rodata        0x000000006082b67c       0x80 arch/arm/lib/built-in.o
 .rodata        0x000000006082b6fc        0x8 drivers/mtd/built-in.o
 .rodata.CSWTCH.100
                0x000000006082b704       0x54 common/built-in.o
 .rodata.arm_pl180_mmci_ops
                0x000000006082b758       0x14 drivers/mmc/built-in.o
 .rodata.block_drvr
                0x000000006082b76c       0x18 disk/built-in.o
 .rodata.boot_os
                0x000000006082b784       0x60 common/built-in.o
 .rodata.chip_ids
                0x000000006082b7e4       0x68 drivers/net/built-in.o
 .rodata.crc_table
                0x000000006082b84c      0x400 lib/built-in.o
 .rodata.env_flags_varaccess_mask
                0x000000006082bc4c       0x10 common/built-in.o
 .rodata.ext_csd_bits.7894
                0x000000006082bc5c       0x14 drivers/mmc/built-in.o
 .rodata.ext_to_hostcaps.7895
                0x000000006082bc70       0x1c drivers/mmc/built-in.o
 .rodata.fbase  0x000000006082bc8c       0x10 drivers/mmc/built-in.o
 .rodata.fdt_errtable
                0x000000006082bc9c       0x34 lib/built-in.o
 .rodata.flash_offset_cfi
                0x000000006082bcd0        0x8 drivers/mtd/built-in.o
 .rodata.keywords
                0x000000006082bcd8       0x98 common/built-in.o
 .rodata.mod_exp_ops_sw
                0x000000006082bd70        0x4 drivers/built-in.o
 .rodata.multipliers
                0x000000006082bd74       0x40 drivers/mmc/built-in.o
 .rodata.op_adv
                0x000000006082bdb4      0x100 common/built-in.o
                0x000000006082bdb4                op_adv
 .rodata.uimage_arch
                0x000000006082beb4      0x12c common/built-in.o
 .rodata.uimage_comp
                0x000000006082bfe0       0x48 common/built-in.o
 .rodata.uimage_os
                0x000000006082c028       0x78 common/built-in.o
 .rodata.uimage_type
                0x000000006082c0a0      0x114 common/built-in.o
 .rodata.widths.7896
                0x000000006082c1b4       0x14 drivers/mmc/built-in.o
 .rodata.dbase.7725
                0x000000006082c1c8       0x40 lib/built-in.o
 .rodata.dext.7726
                0x000000006082c208       0x40 lib/built-in.o
 .rodata.distfix
                0x000000006082c248       0x80 lib/built-in.o
 .rodata.lbase.7723
                0x000000006082c2c8       0x3e lib/built-in.o
 .rodata.lenfix
                0x000000006082c306      0x800 lib/built-in.o
 .rodata.lext.7724
                0x000000006082cb06       0x3e lib/built-in.o
 .rodata.order.7819
                0x000000006082cb44       0x26 lib/built-in.o
 .rodata        0x000000006082cb6a        0x3 common/built-in.o
 .rodata        0x000000006082cb6d        0x7 net/built-in.o
 .rodata.CSWTCH.23
                0x000000006082cb74       0x16 common/built-in.o
 .rodata.__FUNCTION__.7682
                0x000000006082cb8a       0x17 common/built-in.o
 .rodata.__FUNCTION__.8888
                0x000000006082cba1       0x14 net/built-in.o
 .rodata.__func__.7519
                0x000000006082cbb5        0xe common/built-in.o
 .rodata.__func__.7559
                0x000000006082cbc3       0x18 common/built-in.o
 .rodata.__func__.7562
                0x000000006082cbdb       0x10 common/built-in.o
 .rodata.__func__.7578
                0x000000006082cbeb        0xb common/built-in.o
 .rodata.__func__.7585
                0x000000006082cbf6        0xb common/built-in.o
 .rodata.__func__.7909
                0x000000006082cc01        0xe common/built-in.o
 .rodata.__func__.7946
                0x000000006082cc0f        0xe common/built-in.o
 .rodata._ctype
                0x000000006082cc1d      0x100 lib/built-in.o
                0x000000006082cc1d                _ctype
 .rodata.default_environment
                0x000000006082cd1d      0x253 common/built-in.o
                0x000000006082cd1d                default_environment
 .rodata.digits.7444
                0x000000006082cf70       0x10 lib/built-in.o
 .rodata.env_flags_varaccess_rep
                0x000000006082cf80        0x5 common/built-in.o
 .rodata.env_flags_vartype_rep
                0x000000006082cf85        0x7 common/built-in.o
 .rodata.erase_seq
                0x000000006082cf8c        0x4 common/built-in.o
 .rodata.hex_asc
                0x000000006082cf90       0x11 lib/built-in.o
 .rodata.names.7509
                0x000000006082cfa1        0x6 lib/built-in.o
 .rodata.net_bcast_ethaddr
                0x000000006082cfa7        0x6 net/built-in.o
                0x000000006082cfa7                net_bcast_ethaddr
 .rodata.sha1_padding
                0x000000006082cfad       0x40 lib/built-in.o
 .rodata.str1.1
                0x000000006082cfed      0x389 arch/arm/lib/built-in.o
                                        0x3c7 (size before relaxing)
 .rodata.str1.1
                0x000000006082d376       0x12 board/armltd/vexpress/built-in.o
                                         0x16 (size before relaxing)
 .rodata.str1.1
                0x000000006082d388     0x564a common/built-in.o
                                       0x5ba7 (size before relaxing)
 .rodata.str1.1
                0x00000000608329d2      0x43b disk/built-in.o
                                        0x465 (size before relaxing)
 .rodata.str1.1
                0x0000000060832e0d       0x27 drivers/built-in.o
                                         0x2d (size before relaxing)
 .rodata.str1.1
                0x0000000060832e34      0x4b3 drivers/mmc/built-in.o
                                        0x50a (size before relaxing)
 .rodata.str1.1
                0x00000000608332e7      0x3ad drivers/mtd/built-in.o
                                        0x3f0 (size before relaxing)
 .rodata.str1.1
                0x0000000060833694      0x214 drivers/net/built-in.o
                                        0x215 (size before relaxing)
 .rodata.str1.1
                0x00000000608338a8       0x89 drivers/serial/built-in.o
                                         0x92 (size before relaxing)
 .rodata.str1.1
                0x0000000060833931      0x28e fs/built-in.o
                                        0x302 (size before relaxing)
 .rodata.str1.1
                0x0000000060833bbf      0x7c8 lib/built-in.o
                                        0x858 (size before relaxing)
 .rodata.str1.1
                0x0000000060834387      0x718 net/built-in.o
                                        0x7c0 (size before relaxing)
 .rodata.str1.1
                0x0000000060834a9f       0x1b arch/arm/lib/eabi_compat.o
 .rodata.tab_seq
                0x0000000060834aba        0x9 common/built-in.o
 .rodata.version_string
                0x0000000060834ac3       0x43 common/built-in.o
                0x0000000060834ac3                version_string

.hash           0x0000000060834b08       0x2c
 .hash          0x0000000060834b08       0x2c arch/arm/cpu/armv7/start.o
                0x0000000060834b34                . = ALIGN (0x4)

.data           0x0000000060834b34     0x1944
 *(.data*)
 .data.hash_algo
                0x0000000060834b34       0x54 common/built-in.o
 .data.reserved_list
                0x0000000060834b88       0x84 common/built-in.o
 .data.init_sequence_f
                0x0000000060834c0c       0x88 common/built-in.o
 .data.init_sequence_r
                0x0000000060834c94       0x60 common/built-in.o
                0x0000000060834c94                init_sequence_r
 .data.bootm_help_text
                0x0000000060834cf4      0x4ce common/built-in.o
 *fill*         0x00000000608351c2        0x2 
 .data.cmd_bootm_sub
                0x00000000608351c4       0xd8 common/built-in.o
 .data.bootz_help_text
                0x000000006083529c      0x208 common/built-in.o
 .data.first_call
                0x00000000608354a4        0x8 common/built-in.o
 .data.env_ptr  0x00000000608354ac        0x4 common/built-in.o
                0x00000000608354ac                env_ptr
 .data.env_name_spec
                0x00000000608354b0        0x4 common/built-in.o
                0x00000000608354b0                env_name_spec
 .data.source_help_text
                0x00000000608354b4       0xac common/built-in.o
 .data.root.7547
                0x0000000060835560        0x2 common/built-in.o
 .data.tabs.7630
                0x0000000060835562       0x21 common/built-in.o
 .data.fdt_help_text
                0x0000000060835583      0x5e3 common/built-in.o
 *fill*         0x0000000060835b66        0x2 
 .data.dp_last_length
                0x0000000060835b68        0x4 common/built-in.o
 .data.curr_device
                0x0000000060835b6c        0x4 common/built-in.o
 .data.cmd_mmc  0x0000000060835b70       0xf0 common/built-in.o
 .data.cmd_pxe_sub
                0x0000000060835c60       0x30 common/built-in.o
 .data.pxe_default_paths
                0x0000000060835c90        0xc common/built-in.o
                0x0000000060835c90                pxe_default_paths
 .data.env_help_text
                0x0000000060835c9c      0x1f3 common/built-in.o
 *fill*         0x0000000060835e8f        0x1 
 .data.env_id   0x0000000060835e90        0x4 common/built-in.o
 .data.cmd_env_sub
                0x0000000060835e94       0xc0 common/built-in.o
 .data.env_htab
                0x0000000060835f54       0x10 common/built-in.o
                0x0000000060835f54                env_htab
 .data.av_      0x0000000060835f64      0x408 common/built-in.o
 .data.sbrk_base
                0x000000006083636c        0x4 common/built-in.o
 .data.trim_threshold
                0x0000000060836370        0x4 common/built-in.o
 .data.load_addr
                0x0000000060836374        0x4 common/built-in.o
                0x0000000060836374                load_addr
 .data.stdio_names
                0x0000000060836378        0xc common/built-in.o
                0x0000000060836378                stdio_names
 .data.hist_cur
                0x0000000060836384        0x4 common/built-in.o
 .data.cur_dev_num
                0x0000000060836388        0x4 drivers/mmc/built-in.o
 .data          0x000000006083638c        0x8 drivers/serial/built-in.o
 .data.pl01x_serial_drv
                0x0000000060836394       0x30 drivers/serial/built-in.o
 .data.fstypes  0x00000000608363c4       0x58 fs/built-in.o
 .data.sha256_padding
                0x000000006083641c       0x40 lib/built-in.o
 .data.first_call.7660
                0x000000006083645c        0x4 net/built-in.o
 .data.net_native_vlan
                0x0000000060836460        0x2 net/built-in.o
                0x0000000060836460                net_native_vlan
 .data.net_our_vlan
                0x0000000060836462        0x2 net/built-in.o
                0x0000000060836462                net_our_vlan
 .data.tftp_block_size_option
                0x0000000060836464        0x2 net/built-in.o
 *fill*         0x0000000060836466        0x2 
 .data.tftp_timeout_count_max
                0x0000000060836468        0x4 net/built-in.o
                0x0000000060836468                tftp_timeout_count_max
 .data.timeout_ms
                0x000000006083646c        0x4 net/built-in.o
 .data.tftp_block_size
                0x0000000060836470        0x2 net/built-in.o
 *fill*         0x0000000060836472        0x2 
 .data.timeout_count_max
                0x0000000060836474        0x4 net/built-in.o

.got            0x0000000060836478        0x0
 .got           0x0000000000000000        0x0 arch/arm/cpu/armv7/start.o

.got.plt        0x0000000060836478        0xc
 .got.plt       0x0000000060836478        0xc arch/arm/cpu/armv7/start.o
                0x0000000060836478                _GLOBAL_OFFSET_TABLE_

.igot.plt       0x0000000060836484        0x0
 .igot.plt      0x0000000000000000        0x0 arch/arm/cpu/armv7/start.o
                0x0000000060836484                . = ALIGN (0x4)
                0x0000000060836484                . = .
                0x0000000060836484                . = ALIGN (0x4)

.u_boot_list    0x0000000060836484      0x564
 *(SORT(.u_boot_list*))
 .u_boot_list_2_cmd_1
                0x0000000060836484        0x0 common/built-in.o
 .u_boot_list_2_cmd_2_base
                0x0000000060836484       0x18 common/built-in.o
                0x0000000060836484                _u_boot_list_2_cmd_2_base
 .u_boot_list_2_cmd_2_bdinfo
                0x000000006083649c       0x18 common/built-in.o
                0x000000006083649c                _u_boot_list_2_cmd_2_bdinfo
 .u_boot_list_2_cmd_2_bootelf
                0x00000000608364b4       0x18 common/built-in.o
                0x00000000608364b4                _u_boot_list_2_cmd_2_bootelf
 .u_boot_list_2_cmd_2_bootm
                0x00000000608364cc       0x18 common/built-in.o
                0x00000000608364cc                _u_boot_list_2_cmd_2_bootm
 .u_boot_list_2_cmd_2_bootp
                0x00000000608364e4       0x18 common/built-in.o
                0x00000000608364e4                _u_boot_list_2_cmd_2_bootp
 .u_boot_list_2_cmd_2_bootvx
                0x00000000608364fc       0x18 common/built-in.o
                0x00000000608364fc                _u_boot_list_2_cmd_2_bootvx
 .u_boot_list_2_cmd_2_bootz
                0x0000000060836514       0x18 common/built-in.o
                0x0000000060836514                _u_boot_list_2_cmd_2_bootz
 .u_boot_list_2_cmd_2_cmp
                0x000000006083652c       0x18 common/built-in.o
                0x000000006083652c                _u_boot_list_2_cmd_2_cmp
 .u_boot_list_2_cmd_2_cp
                0x0000000060836544       0x18 common/built-in.o
                0x0000000060836544                _u_boot_list_2_cmd_2_cp
 .u_boot_list_2_cmd_2_crc32
                0x000000006083655c       0x18 common/built-in.o
                0x000000006083655c                _u_boot_list_2_cmd_2_crc32
 .u_boot_list_2_cmd_2_dhcp
                0x0000000060836574       0x18 common/built-in.o
                0x0000000060836574                _u_boot_list_2_cmd_2_dhcp
 .u_boot_list_2_cmd_2_env
                0x000000006083658c       0x18 common/built-in.o
                0x000000006083658c                _u_boot_list_2_cmd_2_env
 .u_boot_list_2_cmd_2_erase
                0x00000000608365a4       0x18 common/built-in.o
                0x00000000608365a4                _u_boot_list_2_cmd_2_erase
 .u_boot_list_2_cmd_2_exit
                0x00000000608365bc       0x18 common/built-in.o
                0x00000000608365bc                _u_boot_list_2_cmd_2_exit
 .u_boot_list_2_cmd_2_false
                0x00000000608365d4       0x18 common/built-in.o
                0x00000000608365d4                _u_boot_list_2_cmd_2_false
 .u_boot_list_2_cmd_2_fatinfo
                0x00000000608365ec       0x18 common/built-in.o
                0x00000000608365ec                _u_boot_list_2_cmd_2_fatinfo
 .u_boot_list_2_cmd_2_fatload
                0x0000000060836604       0x18 common/built-in.o
                0x0000000060836604                _u_boot_list_2_cmd_2_fatload
 .u_boot_list_2_cmd_2_fatls
                0x000000006083661c       0x18 common/built-in.o
                0x000000006083661c                _u_boot_list_2_cmd_2_fatls
 .u_boot_list_2_cmd_2_fatsize
                0x0000000060836634       0x18 common/built-in.o
                0x0000000060836634                _u_boot_list_2_cmd_2_fatsize
 .u_boot_list_2_cmd_2_fdt
                0x000000006083664c       0x18 common/built-in.o
                0x000000006083664c                _u_boot_list_2_cmd_2_fdt
 .u_boot_list_2_cmd_2_flinfo
                0x0000000060836664       0x18 common/built-in.o
                0x0000000060836664                _u_boot_list_2_cmd_2_flinfo
 .u_boot_list_2_cmd_2_go
                0x000000006083667c       0x18 common/built-in.o
                0x000000006083667c                _u_boot_list_2_cmd_2_go
 .u_boot_list_2_cmd_2_help
                0x0000000060836694       0x18 common/built-in.o
                0x0000000060836694                _u_boot_list_2_cmd_2_help
 .u_boot_list_2_cmd_2_iminfo
                0x00000000608366ac       0x18 common/built-in.o
                0x00000000608366ac                _u_boot_list_2_cmd_2_iminfo
 .u_boot_list_2_cmd_2_loop
                0x00000000608366c4       0x18 common/built-in.o
                0x00000000608366c4                _u_boot_list_2_cmd_2_loop
 .u_boot_list_2_cmd_2_md
                0x00000000608366dc       0x18 common/built-in.o
                0x00000000608366dc                _u_boot_list_2_cmd_2_md
 .u_boot_list_2_cmd_2_mm
                0x00000000608366f4       0x18 common/built-in.o
                0x00000000608366f4                _u_boot_list_2_cmd_2_mm
 .u_boot_list_2_cmd_2_mmc
                0x000000006083670c       0x18 common/built-in.o
                0x000000006083670c                _u_boot_list_2_cmd_2_mmc
 .u_boot_list_2_cmd_2_mmcinfo
                0x0000000060836724       0x18 common/built-in.o
                0x0000000060836724                _u_boot_list_2_cmd_2_mmcinfo
 .u_boot_list_2_cmd_2_mw
                0x000000006083673c       0x18 common/built-in.o
                0x000000006083673c                _u_boot_list_2_cmd_2_mw
 .u_boot_list_2_cmd_2_nm
                0x0000000060836754       0x18 common/built-in.o
                0x0000000060836754                _u_boot_list_2_cmd_2_nm
 .u_boot_list_2_cmd_2_ping
                0x000000006083676c       0x18 common/built-in.o
                0x000000006083676c                _u_boot_list_2_cmd_2_ping
 .u_boot_list_2_cmd_2_printenv
                0x0000000060836784       0x18 common/built-in.o
                0x0000000060836784                _u_boot_list_2_cmd_2_printenv
 .u_boot_list_2_cmd_2_protect
                0x000000006083679c       0x18 common/built-in.o
                0x000000006083679c                _u_boot_list_2_cmd_2_protect
 .u_boot_list_2_cmd_2_pxe
                0x00000000608367b4       0x18 common/built-in.o
                0x00000000608367b4                _u_boot_list_2_cmd_2_pxe
 .u_boot_list_2_cmd_2_question_mark
                0x00000000608367cc       0x18 common/built-in.o
                0x00000000608367cc                _u_boot_list_2_cmd_2_question_mark
 .u_boot_list_2_cmd_2_reset
                0x00000000608367e4       0x18 common/built-in.o
                0x00000000608367e4                _u_boot_list_2_cmd_2_reset
 .u_boot_list_2_cmd_2_run
                0x00000000608367fc       0x18 common/built-in.o
                0x00000000608367fc                _u_boot_list_2_cmd_2_run
 .u_boot_list_2_cmd_2_saveenv
                0x0000000060836814       0x18 common/built-in.o
                0x0000000060836814                _u_boot_list_2_cmd_2_saveenv
 .u_boot_list_2_cmd_2_setenv
                0x000000006083682c       0x18 common/built-in.o
                0x000000006083682c                _u_boot_list_2_cmd_2_setenv
 .u_boot_list_2_cmd_2_showvar
                0x0000000060836844       0x18 common/built-in.o
                0x0000000060836844                _u_boot_list_2_cmd_2_showvar
 .u_boot_list_2_cmd_2_source
                0x000000006083685c       0x18 common/built-in.o
                0x000000006083685c                _u_boot_list_2_cmd_2_source
 .u_boot_list_2_cmd_2_sysboot
                0x0000000060836874       0x18 common/built-in.o
                0x0000000060836874                _u_boot_list_2_cmd_2_sysboot
 .u_boot_list_2_cmd_2_test
                0x000000006083688c       0x18 common/built-in.o
                0x000000006083688c                _u_boot_list_2_cmd_2_test
 .u_boot_list_2_cmd_2_tftpboot
                0x00000000608368a4       0x18 common/built-in.o
                0x00000000608368a4                _u_boot_list_2_cmd_2_tftpboot
 .u_boot_list_2_cmd_2_true
                0x00000000608368bc       0x18 common/built-in.o
                0x00000000608368bc                _u_boot_list_2_cmd_2_true
 .u_boot_list_2_cmd_2_version
                0x00000000608368d4       0x18 common/built-in.o
                0x00000000608368d4                _u_boot_list_2_cmd_2_version
 .u_boot_list_2_cmd_3
                0x00000000608368ec        0x0 common/built-in.o
 .u_boot_list_2_driver_2_mod_exp_sw
                0x00000000608368ec       0x44 drivers/built-in.o
                0x00000000608368ec                _u_boot_list_2_driver_2_mod_exp_sw
 .u_boot_list_2_driver_info_2_mod_exp_sw
                0x0000000060836930        0x8 drivers/built-in.o
                0x0000000060836930                _u_boot_list_2_driver_info_2_mod_exp_sw
 .u_boot_list_2_env_clbk_1
                0x0000000060836938        0x0 common/built-in.o
 .u_boot_list_2_env_clbk_2_baudrate
                0x0000000060836938        0x8 drivers/serial/built-in.o
                0x0000000060836938                _u_boot_list_2_env_clbk_2_baudrate
 .u_boot_list_2_env_clbk_2_bootfile
                0x0000000060836940        0x8 net/built-in.o
                0x0000000060836940                _u_boot_list_2_env_clbk_2_bootfile
 .u_boot_list_2_env_clbk_2_callbacks
                0x0000000060836948        0x8 common/built-in.o
                0x0000000060836948                _u_boot_list_2_env_clbk_2_callbacks
 .u_boot_list_2_env_clbk_2_console
                0x0000000060836950        0x8 common/built-in.o
                0x0000000060836950                _u_boot_list_2_env_clbk_2_console
 .u_boot_list_2_env_clbk_2_ethaddr
                0x0000000060836958        0x8 net/built-in.o
                0x0000000060836958                _u_boot_list_2_env_clbk_2_ethaddr
 .u_boot_list_2_env_clbk_2_flags
                0x0000000060836960        0x8 common/built-in.o
                0x0000000060836960                _u_boot_list_2_env_clbk_2_flags
 .u_boot_list_2_env_clbk_2_gatewayip
                0x0000000060836968        0x8 net/built-in.o
                0x0000000060836968                _u_boot_list_2_env_clbk_2_gatewayip
 .u_boot_list_2_env_clbk_2_ipaddr
                0x0000000060836970        0x8 net/built-in.o
                0x0000000060836970                _u_boot_list_2_env_clbk_2_ipaddr
 .u_boot_list_2_env_clbk_2_loadaddr
                0x0000000060836978        0x8 common/built-in.o
                0x0000000060836978                _u_boot_list_2_env_clbk_2_loadaddr
 .u_boot_list_2_env_clbk_2_netmask
                0x0000000060836980        0x8 net/built-in.o
                0x0000000060836980                _u_boot_list_2_env_clbk_2_netmask
 .u_boot_list_2_env_clbk_2_nvlan
                0x0000000060836988        0x8 net/built-in.o
                0x0000000060836988                _u_boot_list_2_env_clbk_2_nvlan
 .u_boot_list_2_env_clbk_2_serverip
                0x0000000060836990        0x8 net/built-in.o
                0x0000000060836990                _u_boot_list_2_env_clbk_2_serverip
 .u_boot_list_2_env_clbk_2_vlan
                0x0000000060836998        0x8 net/built-in.o
                0x0000000060836998                _u_boot_list_2_env_clbk_2_vlan
 .u_boot_list_2_env_clbk_3
                0x00000000608369a0        0x0 common/built-in.o
 .u_boot_list_2_uclass_2_mod_exp
                0x00000000608369a0       0x48 drivers/built-in.o
                0x00000000608369a0                _u_boot_list_2_uclass_2_mod_exp
                0x00000000608369e8                . = ALIGN (0x4)

.image_copy_end
                0x00000000608369e8        0x0
 *(.__image_copy_end)
 .__image_copy_end
                0x00000000608369e8        0x0 arch/arm/lib/built-in.o

.rel_dyn_start  0x00000000608369e8        0x0
 *(.__rel_dyn_start)
 .__rel_dyn_start
                0x00000000608369e8        0x0 arch/arm/lib/built-in.o

.rel.dyn        0x00000000608369e8     0x6028
 *(.rel*)
 .rel.got       0x0000000000000000        0x0 arch/arm/cpu/armv7/start.o
 .rel.plt       0x0000000000000000        0x0 arch/arm/cpu/armv7/start.o
 .rel.iplt      0x0000000000000000        0x0 arch/arm/cpu/armv7/start.o
 .rel.text      0x00000000608369e8       0x20 arch/arm/cpu/armv7/start.o
 .rel.text.v7_dcache_inval_range
                0x0000000000000000        0x0 arch/arm/cpu/armv7/start.o
 .rel.vectors   0x0000000060836a08       0x38 arch/arm/cpu/armv7/start.o
 .rel.text.relocate_vectors
                0x0000000060836a40       0x20 arch/arm/cpu/armv7/start.o
 .rel.text.boot_jump_linux
                0x0000000060836a60       0x28 arch/arm/cpu/armv7/start.o
 .rel.text.boot_prep_linux
                0x0000000060836a88       0x18 arch/arm/cpu/armv7/start.o
 .rel.text.bootz_setup
                0x0000000060836aa0       0x10 arch/arm/cpu/armv7/start.o
 .rel.text.boot_prep_vxworks
                0x0000000060836ab0       0x10 arch/arm/cpu/armv7/start.o
 .rel.text.interrupt_init
                0x0000000060836ac0        0x8 arch/arm/cpu/armv7/start.o
 .rel.text.bad_mode
                0x0000000060836ac8        0x8 arch/arm/cpu/armv7/start.o
 .rel.text.show_regs
                0x0000000060836ad0       0x60 arch/arm/cpu/armv7/start.o
 .rel.text.do_undefined_instruction
                0x0000000060836b30        0x8 arch/arm/cpu/armv7/start.o
 .rel.text.do_software_interrupt
                0x0000000060836b38        0x8 arch/arm/cpu/armv7/start.o
 .rel.text.do_prefetch_abort
                0x0000000060836b40        0x8 arch/arm/cpu/armv7/start.o
 .rel.text.do_data_abort
                0x0000000060836b48        0x8 arch/arm/cpu/armv7/start.o
 .rel.text.do_not_used
                0x0000000060836b50        0x8 arch/arm/cpu/armv7/start.o
 .rel.text.do_fiq
                0x0000000060836b58        0x8 arch/arm/cpu/armv7/start.o
 .rel.text.do_irq
                0x0000000060836b60        0x8 arch/arm/cpu/armv7/start.o
 .rel.text.do_reset
                0x0000000060836b68        0x8 arch/arm/cpu/armv7/start.o
 .rel.text.enable_caches
                0x0000000060836b70        0x8 arch/arm/cpu/armv7/start.o
 .rel.rodata    0x0000000060836b78      0x100 arch/arm/cpu/armv7/start.o
 .rel.text.cpu_mmc_init
                0x0000000060836c78        0x8 arch/arm/cpu/armv7/start.o
 .rel.text.reset_cpu
                0x0000000060836c80        0x8 arch/arm/cpu/armv7/start.o
 .rel.text.jumptable_init
                0x0000000060836c88       0xb8 arch/arm/cpu/armv7/start.o
 .rel.text.hash_lookup_algo
                0x0000000060836d40        0x8 arch/arm/cpu/armv7/start.o
 .rel.text.hash_progressive_lookup_algo
                0x0000000000000000        0x0 arch/arm/cpu/armv7/start.o
 .rel.text.hash_show
                0x0000000060836d48       0x10 arch/arm/cpu/armv7/start.o
 .rel.text.hash_command
                0x0000000060836d58       0x20 arch/arm/cpu/armv7/start.o
 .rel.text.mapset
                0x0000000060836d78        0x8 arch/arm/cpu/armv7/start.o
 .rel.text.syntax_err
                0x0000000060836d80        0x8 arch/arm/cpu/armv7/start.o
 .rel.text.xmalloc
                0x0000000060836d88        0x8 arch/arm/cpu/armv7/start.o
 .rel.text.xrealloc
                0x0000000060836d90        0x8 arch/arm/cpu/armv7/start.o
 .rel.text.done_word
                0x0000000060836d98        0x8 arch/arm/cpu/armv7/start.o
 .rel.text.do_showvar
                0x0000000060836da0       0x20 arch/arm/cpu/armv7/start.o
 .rel.text.is_assignment
                0x0000000060836dc0        0x8 arch/arm/cpu/armv7/start.o
 .rel.text.file_get
                0x0000000060836dc8       0x30 arch/arm/cpu/armv7/start.o
 .rel.text.b_addqchr
                0x0000000060836df8        0x8 arch/arm/cpu/armv7/start.o
 .rel.text.get_local_var
                0x0000000060836e00       0x20 arch/arm/cpu/armv7/start.o
 .rel.text.set_local_var
                0x0000000060836e20       0x20 arch/arm/cpu/armv7/start.o
 .rel.text.insert_var_value_sub
                0x0000000060836e40        0x8 arch/arm/cpu/armv7/start.o
 .rel.text.unset_local_var
                0x0000000000000000        0x0 arch/arm/cpu/armv7/start.o
 .rel.text.parse_string_outer
                0x0000000060836e48       0x18 arch/arm/cpu/armv7/start.o
 .rel.text.run_list_real
                0x0000000060836e60       0x40 arch/arm/cpu/armv7/start.o
 .rel.text.parse_stream_outer
                0x0000000060836ea0       0x68 arch/arm/cpu/armv7/start.o
 .rel.text.parse_file_outer
                0x0000000060836f08       0x10 arch/arm/cpu/armv7/start.o
 .rel.text.u_boot_hush_start
                0x0000000060836f18       0x18 arch/arm/cpu/armv7/start.o
 .rel.text.bootdelay_process
                0x0000000060836f30       0x18 arch/arm/cpu/armv7/start.o
 .rel.text.autoboot_command
                0x0000000060836f48       0x18 arch/arm/cpu/armv7/start.o
 .rel.text.setup_mon_len
                0x0000000060836f60       0x10 arch/arm/cpu/armv7/start.o
 .rel.text.announce_dram_init
                0x0000000060836f70        0x8 arch/arm/cpu/armv7/start.o
 .rel.text.init_baud_rate
                0x0000000060836f78        0x8 arch/arm/cpu/armv7/start.o
 .rel.text.show_dram_config
                0x0000000060836f80        0x8 arch/arm/cpu/armv7/start.o
 .rel.text.board_init_f
                0x0000000060836f88        0x8 arch/arm/cpu/armv7/start.o
 .rel.text.initr_reloc_global_data
                0x0000000060836f90       0x18 arch/arm/cpu/armv7/start.o
 .rel.text.initr_net
                0x0000000060836fa8        0x8 arch/arm/cpu/armv7/start.o
 .rel.text.initr_ethaddr
                0x0000000060836fb0        0x8 arch/arm/cpu/armv7/start.o
 .rel.text.initr_env
                0x0000000060836fb8       0x10 arch/arm/cpu/armv7/start.o
 .rel.text.initr_mmc
                0x0000000060836fc8        0x8 arch/arm/cpu/armv7/start.o
 .rel.text.initr_flash
                0x0000000060836fd0       0x18 arch/arm/cpu/armv7/start.o
 .rel.text.board_init_r
                0x0000000060836fe8        0x8 arch/arm/cpu/armv7/start.o
 .rel.text.do_go
                0x0000000060836ff0       0x10 arch/arm/cpu/armv7/start.o
 .rel.text.do_bootm
                0x0000000060837000       0x18 arch/arm/cpu/armv7/start.o
 .rel.text.image_info
                0x0000000060837018       0x58 arch/arm/cpu/armv7/start.o
 .rel.text.do_iminfo
                0x0000000060837070        0x8 arch/arm/cpu/armv7/start.o
 .rel.text.bootm_maybe_autostart
                0x0000000060837078       0x20 arch/arm/cpu/armv7/start.o
 .rel.text.do_bootz
                0x0000000060837098       0x10 arch/arm/cpu/armv7/start.o
 .rel.text.bootm_find_images
                0x00000000608370a8       0x20 arch/arm/cpu/armv7/start.o
 .rel.text.bootm_decomp_image
                0x00000000608370c8       0x48 arch/arm/cpu/armv7/start.o
 .rel.text.do_bootm_states
                0x0000000060837110       0xe8 arch/arm/cpu/armv7/start.o
 .rel.text.do_bootm_rtems
                0x00000000608371f8        0x8 arch/arm/cpu/armv7/start.o
 .rel.text.do_bootm_plan9
                0x0000000060837200       0x18 arch/arm/cpu/armv7/start.o
 .rel.text.do_bootm_standalone
                0x0000000060837218       0x18 arch/arm/cpu/armv7/start.o
 .rel.text.do_bootm_qnxelf
                0x0000000060837230        0x8 arch/arm/cpu/armv7/start.o
 .rel.text.do_bootm_netbsd
                0x0000000060837238       0x18 arch/arm/cpu/armv7/start.o
 .rel.text.do_bootvx_fdt
                0x0000000060837250       0x38 arch/arm/cpu/armv7/start.o
 .rel.text.bootm_os_get_boot_func
                0x0000000060837288        0x8 arch/arm/cpu/armv7/start.o
 .rel.text.do_help
                0x0000000060837290       0x10 arch/arm/cpu/armv7/start.o
 .rel.text.do_version
                0x00000000608372a0       0x20 arch/arm/cpu/armv7/start.o
 .rel.text.regex_callback
                0x00000000608372c0       0x10 arch/arm/cpu/armv7/start.o
 .rel.text.env_attr_lookup
                0x00000000608372d0        0x8 arch/arm/cpu/armv7/start.o
 .rel.text.find_env_callback
                0x00000000608372d8       0x10 arch/arm/cpu/armv7/start.o
 .rel.text.on_callbacks
                0x00000000608372e8       0x20 arch/arm/cpu/armv7/start.o
 .rel.text.set_callback
                0x0000000060837308        0x8 arch/arm/cpu/armv7/start.o
 .rel.text.env_callback_init
                0x0000000060837310       0x20 arch/arm/cpu/armv7/start.o
 .rel.text.skip_num
                0x0000000060837330        0x8 arch/arm/cpu/armv7/start.o
 .rel.text.on_flags
                0x0000000060837338       0x20 arch/arm/cpu/armv7/start.o
 .rel.text.env_flags_parse_vartype
                0x0000000060837358       0x10 arch/arm/cpu/armv7/start.o
 .rel.text.env_flags_parse_varaccess
                0x0000000060837368       0x10 arch/arm/cpu/armv7/start.o
 .rel.text.set_flags
                0x0000000060837378       0x10 arch/arm/cpu/armv7/start.o
 .rel.text.env_flags_init
                0x0000000060837388       0x30 arch/arm/cpu/armv7/start.o
 .rel.text.env_flags_validate
                0x00000000608373b8       0x68 arch/arm/cpu/armv7/start.o
 .rel.text.env_init
                0x0000000060837420       0x10 arch/arm/cpu/armv7/start.o
 .rel.text.saveenv
                0x0000000060837430       0x18 arch/arm/cpu/armv7/start.o
 .rel.text.source
                0x0000000060837448       0x68 arch/arm/cpu/armv7/start.o
 .rel.text.do_source
                0x00000000608374b0       0x10 arch/arm/cpu/armv7/start.o
 .rel.text.print_num
                0x00000000608374c0        0x8 arch/arm/cpu/armv7/start.o
 .rel.text.do_bdinfo
                0x00000000608374c8       0x98 arch/arm/cpu/armv7/start.o
 .rel.text.valid_elf_image
                0x0000000060837560       0x10 arch/arm/cpu/armv7/start.o
 .rel.text.do_bootelf
                0x0000000060837570       0x28 arch/arm/cpu/armv7/start.o
 .rel.text.do_bootvx
                0x0000000060837598       0xa8 arch/arm/cpu/armv7/start.o
 .rel.text.do_fat_fsinfo
                0x0000000060837640       0x10 arch/arm/cpu/armv7/start.o
 .rel.text.fdt_valid
                0x0000000060837650       0x28 arch/arm/cpu/armv7/start.o
 .rel.text.is_printable_string
                0x0000000060837678        0x8 arch/arm/cpu/armv7/start.o
 .rel.text.print_data
                0x0000000060837680       0x58 arch/arm/cpu/armv7/start.o
 .rel.text.set_working_fdt_addr
                0x00000000608376d8       0x10 arch/arm/cpu/armv7/start.o
 .rel.text.do_fdt
                0x00000000608376e8      0x240 arch/arm/cpu/armv7/start.o
 .rel.text.of_bus_default_count_cells
                0x0000000000000000        0x0 arch/arm/cpu/armv7/start.o
 .rel.text.fdt_find_or_add_subnode
                0x0000000060837928       0x10 arch/arm/cpu/armv7/start.o
 .rel.text.fdt_root
                0x0000000060837938       0x20 arch/arm/cpu/armv7/start.o
 .rel.text.fdt_initrd
                0x0000000060837958       0x30 arch/arm/cpu/armv7/start.o
 .rel.text.fdt_chosen
                0x0000000060837988       0x20 arch/arm/cpu/armv7/start.o
 .rel.text.do_fixup_by_path
                0x00000000608379a8        0x8 arch/arm/cpu/armv7/start.o
 .rel.text.fdt_fixup_memory_banks
                0x00000000608379b0       0x38 arch/arm/cpu/armv7/start.o
 .rel.text.fdt_fixup_ethernet
                0x00000000608379e8       0x38 arch/arm/cpu/armv7/start.o
 .rel.text.fdt_del_node_and_alias
                0x0000000000000000        0x0 arch/arm/cpu/armv7/start.o
 .rel.text.fdt_translate_address
                0x0000000000000000        0x0 arch/arm/cpu/armv7/start.o
 .rel.text.fdt_node_offset_by_compat_reg
                0x0000000000000000        0x0 arch/arm/cpu/armv7/start.o
 .rel.text.fdt_set_phandle
                0x0000000000000000        0x0 arch/arm/cpu/armv7/start.o
 .rel.text.fdt_create_phandle
                0x0000000000000000        0x0 arch/arm/cpu/armv7/start.o
 .rel.text.fdt_set_node_status
                0x0000000000000000        0x0 arch/arm/cpu/armv7/start.o
 .rel.text.fdt_verify_alias_address
                0x0000000000000000        0x0 arch/arm/cpu/armv7/start.o
 .rel.text.fdt_get_base_address
                0x0000000000000000        0x0 arch/arm/cpu/armv7/start.o
 .rel.text.fdt_read_range
                0x0000000000000000        0x0 arch/arm/cpu/armv7/start.o
 .rel.text.fdt_setup_simplefb_node
                0x0000000000000000        0x0 arch/arm/cpu/armv7/start.o
 .rel.text.fdt_fixup_display
                0x0000000000000000        0x0 arch/arm/cpu/armv7/start.o
 .rel.text.flash_fill_sect_ranges
                0x0000000060837a20       0x28 arch/arm/cpu/armv7/start.o
 .rel.text.abbrev_spec
                0x0000000060837a48        0x8 arch/arm/cpu/armv7/start.o
 .rel.text.do_flinfo
                0x0000000060837a50       0x20 arch/arm/cpu/armv7/start.o
 .rel.text.flash_sect_roundb
                0x0000000060837a70       0x10 arch/arm/cpu/armv7/start.o
 .rel.text.flash_sect_erase
                0x0000000060837a80       0x18 arch/arm/cpu/armv7/start.o
 .rel.text.do_flerase
                0x0000000060837a98       0x40 arch/arm/cpu/armv7/start.o
 .rel.text.flash_sect_protect
                0x0000000060837ad8       0x30 arch/arm/cpu/armv7/start.o
 .rel.text.do_protect
                0x0000000060837b08       0x70 arch/arm/cpu/armv7/start.o
 .rel.text.do_mem_mw
                0x0000000060837b78        0x8 arch/arm/cpu/armv7/start.o
 .rel.text.do_mem_md
                0x0000000060837b80       0x20 arch/arm/cpu/armv7/start.o
 .rel.text.do_mem_cmp
                0x0000000060837ba0       0x38 arch/arm/cpu/armv7/start.o
 .rel.text.do_mem_base
                0x0000000060837bd8       0x10 arch/arm/cpu/armv7/start.o
 .rel.text.do_mem_cp
                0x0000000060837be8       0x20 arch/arm/cpu/armv7/start.o
 .rel.text.do_mem_crc
                0x0000000060837c08        0x8 arch/arm/cpu/armv7/start.o
 .rel.text.mod_mem.isra.2
                0x0000000060837c10       0x48 arch/arm/cpu/armv7/start.o
 .rel.text.do_mmcops
                0x0000000060837c58       0x18 arch/arm/cpu/armv7/start.o
 .rel.text.init_mmc_device
                0x0000000060837c70        0x8 arch/arm/cpu/armv7/start.o
 .rel.text.do_mmc_rescan
                0x0000000060837c78        0x8 arch/arm/cpu/armv7/start.o
 .rel.text.do_mmc_hwpartition
                0x0000000060837c80       0xb0 arch/arm/cpu/armv7/start.o
 .rel.text.do_mmc_dev
                0x0000000060837d30       0x38 arch/arm/cpu/armv7/start.o
 .rel.text.do_mmc_part
                0x0000000060837d68       0x10 arch/arm/cpu/armv7/start.o
 .rel.text.do_mmc_erase
                0x0000000060837d78       0x30 arch/arm/cpu/armv7/start.o
 .rel.text.do_mmc_write
                0x0000000060837da8       0x30 arch/arm/cpu/armv7/start.o
 .rel.text.do_mmc_read
                0x0000000060837dd8       0x28 arch/arm/cpu/armv7/start.o
 .rel.text.do_mmcinfo
                0x0000000060837e00       0xf8 arch/arm/cpu/armv7/start.o
 .rel.text.do_mmc_setdsr
                0x0000000060837ef8       0x28 arch/arm/cpu/armv7/start.o
 .rel.text.netboot_common
                0x0000000060837f20       0x98 arch/arm/cpu/armv7/start.o
 .rel.text.do_ping
                0x0000000060837fb8       0x18 arch/arm/cpu/armv7/start.o
 .rel.text.do_pxe
                0x0000000060837fd0       0x10 arch/arm/cpu/armv7/start.o
 .rel.text.label_print
                0x0000000060837fe0        0x8 arch/arm/cpu/armv7/start.o
 .rel.text.do_get_tftp
                0x0000000060837fe8        0x8 arch/arm/cpu/armv7/start.o
 .rel.text.from_env
                0x0000000060837ff0        0x8 arch/arm/cpu/armv7/start.o
 .rel.text.get_string
                0x0000000060837ff8        0x8 arch/arm/cpu/armv7/start.o
 .rel.text.get_token
                0x0000000060838000        0x8 arch/arm/cpu/armv7/start.o
 .rel.text.parse_sliteral
                0x0000000060838008        0x8 arch/arm/cpu/armv7/start.o
 .rel.text.parse_integer
                0x0000000060838010        0x8 arch/arm/cpu/armv7/start.o
 .rel.text.do_get_fat
                0x0000000060838018       0x10 arch/arm/cpu/armv7/start.o
 .rel.text.format_mac_pxe.constprop.9
                0x0000000060838028       0x10 arch/arm/cpu/armv7/start.o
 .rel.text.get_relfile
                0x0000000060838038       0x38 arch/arm/cpu/armv7/start.o
 .rel.text.get_pxe_file
                0x0000000060838070        0x8 arch/arm/cpu/armv7/start.o
 .rel.text.handle_include
                0x0000000060838078       0x10 arch/arm/cpu/armv7/start.o
 .rel.text.parse_pxefile_top
                0x0000000060838088      0x150 arch/arm/cpu/armv7/start.o
 .rel.text.get_pxelinux_path
                0x00000000608381d8       0x18 arch/arm/cpu/armv7/start.o
 .rel.text.do_pxe_get
                0x00000000608381f0       0x48 arch/arm/cpu/armv7/start.o
 .rel.text.label_boot
                0x0000000060838238       0xf8 arch/arm/cpu/armv7/start.o
 .rel.text.handle_pxe_menu
                0x0000000060838330       0x18 arch/arm/cpu/armv7/start.o
 .rel.text.do_pxe_boot
                0x0000000060838348       0x38 arch/arm/cpu/armv7/start.o
 .rel.text.do_sysboot
                0x0000000060838380       0x80 arch/arm/cpu/armv7/start.o
 .rel.text.do_test
                0x0000000060838400       0x70 arch/arm/cpu/armv7/start.o
 .rel.text.addr2info
                0x0000000060838470        0x8 arch/arm/cpu/armv7/start.o
 .rel.text.flash_perror
                0x0000000060838478       0x58 arch/arm/cpu/armv7/start.o
 .rel.text.menu_get_choice
                0x00000000608384d0       0x18 arch/arm/cpu/armv7/start.o
 .rel.text.do_env_delete
                0x00000000608384e8       0x10 arch/arm/cpu/armv7/start.o
 .rel.text.do_env_save
                0x00000000608384f8       0x10 arch/arm/cpu/armv7/start.o
 .rel.text.do_env
                0x0000000060838508        0x8 arch/arm/cpu/armv7/start.o
 .rel.text.env_print
                0x0000000060838510       0x18 arch/arm/cpu/armv7/start.o
 .rel.text.do_env_print
                0x0000000060838528       0x10 arch/arm/cpu/armv7/start.o
 .rel.text.do_env_import
                0x0000000060838538       0x58 arch/arm/cpu/armv7/start.o
 .rel.text.do_env_default
                0x0000000060838590        0x8 arch/arm/cpu/armv7/start.o
 .rel.text._do_env_set.isra.1
                0x0000000060838598       0x30 arch/arm/cpu/armv7/start.o
 .rel.text.get_env_id
                0x00000000608385c8        0x8 arch/arm/cpu/armv7/start.o
 .rel.text.setenv
                0x00000000608385d0        0x8 arch/arm/cpu/armv7/start.o
 .rel.text.setenv_hex
                0x00000000608385d8        0x8 arch/arm/cpu/armv7/start.o
 .rel.text.do_env_export
                0x00000000608385e0       0x40 arch/arm/cpu/armv7/start.o
 .rel.text.getenv_f
                0x0000000060838620        0x8 arch/arm/cpu/armv7/start.o
 .rel.text.getenv
                0x0000000060838628        0x8 arch/arm/cpu/armv7/start.o
 .rel.text.env_get_addr
                0x0000000060838630        0x8 arch/arm/cpu/armv7/start.o
 .rel.text.env_get_char
                0x0000000060838638        0x8 arch/arm/cpu/armv7/start.o
 .rel.text.set_default_env
                0x0000000060838640       0x40 arch/arm/cpu/armv7/start.o
 .rel.text.set_default_vars
                0x0000000060838680       0x10 arch/arm/cpu/armv7/start.o
 .rel.text.env_import
                0x0000000060838690       0x38 arch/arm/cpu/armv7/start.o
 .rel.text.env_export
                0x00000000608386c8       0x28 arch/arm/cpu/armv7/start.o
 .rel.text.env_relocate
                0x00000000608386f0        0x8 arch/arm/cpu/armv7/start.o
 .rel.text.console_setfile
                0x00000000608386f8       0x30 arch/arm/cpu/armv7/start.o
 .rel.text.puts
                0x0000000060838728        0x8 arch/arm/cpu/armv7/start.o
 .rel.text.fgetc
                0x0000000060838730        0x8 arch/arm/cpu/armv7/start.o
 .rel.text.ftstc
                0x0000000060838738        0x8 arch/arm/cpu/armv7/start.o
 .rel.text.fputc
                0x0000000060838740        0x8 arch/arm/cpu/armv7/start.o
 .rel.text.fputs
                0x0000000000000000        0x0 arch/arm/cpu/armv7/start.o
 .rel.text.ctrlc
                0x0000000060838748       0x10 arch/arm/cpu/armv7/start.o
 .rel.text.confirm_yesno
                0x0000000000000000        0x0 arch/arm/cpu/armv7/start.o
 .rel.text.disable_ctrlc
                0x0000000000000000        0x0 arch/arm/cpu/armv7/start.o
 .rel.text.had_ctrlc
                0x0000000060838758        0x8 arch/arm/cpu/armv7/start.o
 .rel.text.clear_ctrlc
                0x0000000060838760        0x8 arch/arm/cpu/armv7/start.o
 .rel.text.on_console
                0x0000000060838768       0x20 arch/arm/cpu/armv7/start.o
 .rel.text.stdio_print_current_devices
                0x0000000060838788       0x40 arch/arm/cpu/armv7/start.o
 .rel.text.console_init_r
                0x00000000608387c8       0x10 arch/arm/cpu/armv7/start.o
 .rel.text.sbrk
                0x00000000608387d8       0x18 arch/arm/cpu/armv7/start.o
 .rel.text.mem_malloc_init
                0x00000000608387f0       0x18 arch/arm/cpu/armv7/start.o
 .rel.text.malloc_trim
                0x0000000060838808       0x18 arch/arm/cpu/armv7/start.o
 .rel.text.free
                0x0000000060838820       0x18 arch/arm/cpu/armv7/start.o
 .rel.text.malloc
                0x0000000060838838       0x40 arch/arm/cpu/armv7/start.o
 .rel.text.calloc
                0x0000000060838878        0x8 arch/arm/cpu/armv7/start.o
 .rel.text.realloc
                0x0000000060838880        0x8 arch/arm/cpu/armv7/start.o
 .rel.text.mallopt
                0x0000000000000000        0x0 arch/arm/cpu/armv7/start.o
 .rel.text.on_loadaddr
                0x0000000060838888        0x8 arch/arm/cpu/armv7/start.o
 .rel.text.getenv_bootm_low
                0x0000000060838890        0x8 arch/arm/cpu/armv7/start.o
 .rel.text.getenv_bootm_size
                0x0000000060838898       0x10 arch/arm/cpu/armv7/start.o
 .rel.text.getenv_bootm_mapsize
                0x00000000608388a8        0x8 arch/arm/cpu/armv7/start.o
 .rel.text.genimg_print_size
                0x00000000608388b0       0x10 arch/arm/cpu/armv7/start.o
 .rel.text.genimg_get_os_name
                0x00000000608388c0       0x10 arch/arm/cpu/armv7/start.o
 .rel.text.genimg_get_arch_name
                0x00000000608388d0       0x10 arch/arm/cpu/armv7/start.o
 .rel.text.genimg_get_type_name
                0x00000000608388e0       0x10 arch/arm/cpu/armv7/start.o
 .rel.text.genimg_get_type_short_name
                0x0000000000000000        0x0 arch/arm/cpu/armv7/start.o
 .rel.text.genimg_get_comp_name
                0x00000000608388f0       0x10 arch/arm/cpu/armv7/start.o
 .rel.text.image_print_contents
                0x0000000060838900       0x50 arch/arm/cpu/armv7/start.o
 .rel.text.genimg_get_os_id
                0x0000000060838950       0x10 arch/arm/cpu/armv7/start.o
 .rel.text.genimg_get_arch_id
                0x0000000060838960       0x10 arch/arm/cpu/armv7/start.o
 .rel.text.genimg_get_type_id
                0x0000000060838970       0x10 arch/arm/cpu/armv7/start.o
 .rel.text.genimg_get_comp_id
                0x0000000060838980       0x10 arch/arm/cpu/armv7/start.o
 .rel.text.genimg_get_kernel_addr_fit
                0x0000000060838990        0x8 arch/arm/cpu/armv7/start.o
 .rel.text.boot_get_ramdisk
                0x0000000060838998       0x60 arch/arm/cpu/armv7/start.o
 .rel.text.boot_ramdisk_high
                0x00000000608389f8       0x20 arch/arm/cpu/armv7/start.o
 .rel.text.boot_get_loadable
                0x0000000060838a18       0x10 arch/arm/cpu/armv7/start.o
 .rel.text.fdt_error
                0x0000000060838a28       0x10 arch/arm/cpu/armv7/start.o
 .rel.text.boot_fdt_add_mem_rsv_regions
                0x0000000060838a38        0x8 arch/arm/cpu/armv7/start.o
 .rel.text.boot_relocate_fdt
                0x0000000060838a40       0x40 arch/arm/cpu/armv7/start.o
 .rel.text.boot_get_fdt
                0x0000000060838a80       0x90 arch/arm/cpu/armv7/start.o
 .rel.text.image_setup_libfdt
                0x0000000060838b10       0x20 arch/arm/cpu/armv7/start.o
 .rel.text.fit_get_desc
                0x0000000060838b30        0x8 arch/arm/cpu/armv7/start.o
 .rel.text.fit_get_timestamp
                0x0000000000000000        0x0 arch/arm/cpu/armv7/start.o
 .rel.text.fit_image_get_node
                0x0000000060838b38        0x8 arch/arm/cpu/armv7/start.o
 .rel.text.fit_image_get_os
                0x0000000060838b40        0x8 arch/arm/cpu/armv7/start.o
 .rel.text.fit_image_get_arch
                0x0000000060838b48        0x8 arch/arm/cpu/armv7/start.o
 .rel.text.fit_image_get_type
                0x0000000060838b50        0x8 arch/arm/cpu/armv7/start.o
 .rel.text.fit_image_get_comp
                0x0000000060838b58        0x8 arch/arm/cpu/armv7/start.o
 .rel.text.fit_image_get_load
                0x0000000060838b60        0x8 arch/arm/cpu/armv7/start.o
 .rel.text.fit_image_get_entry
                0x0000000060838b68        0x8 arch/arm/cpu/armv7/start.o
 .rel.text.fit_image_get_data
                0x0000000060838b70        0x8 arch/arm/cpu/armv7/start.o
 .rel.text.fit_image_hash_get_algo
                0x0000000060838b78        0x8 arch/arm/cpu/armv7/start.o
 .rel.text.fit_image_hash_get_value
                0x0000000060838b80        0x8 arch/arm/cpu/armv7/start.o
 .rel.text.fit_image_print_data
                0x0000000060838b88       0x58 arch/arm/cpu/armv7/start.o
 .rel.text.fit_image_print
                0x0000000060838be0       0x80 arch/arm/cpu/armv7/start.o
 .rel.text.fit_set_timestamp
                0x0000000000000000        0x0 arch/arm/cpu/armv7/start.o
 .rel.text.calculate_hash
                0x0000000060838c60       0x20 arch/arm/cpu/armv7/start.o
 .rel.text.fit_image_verify
                0x0000000060838c80       0x68 arch/arm/cpu/armv7/start.o
 .rel.text.fit_all_image_verify
                0x0000000060838ce8       0x28 arch/arm/cpu/armv7/start.o
 .rel.text.fit_check_format
                0x0000000060838d10       0x10 arch/arm/cpu/armv7/start.o
 .rel.text.fit_conf_find_compat
                0x0000000000000000        0x0 arch/arm/cpu/armv7/start.o
 .rel.text.fit_conf_get_node
                0x0000000060838d20       0x10 arch/arm/cpu/armv7/start.o
 .rel.text.fit_conf_print
                0x0000000060838d30       0x60 arch/arm/cpu/armv7/start.o
 .rel.text.fit_print_contents
                0x0000000060838d90       0x58 arch/arm/cpu/armv7/start.o
 .rel.text.fit_image_load
                0x0000000060838de8       0xa0 arch/arm/cpu/armv7/start.o
 .rel.text.boot_get_setup_fit
                0x0000000060838e88        0x8 arch/arm/cpu/armv7/start.o
 .rel.text.stdio_get_list
                0x0000000060838e90        0x8 arch/arm/cpu/armv7/start.o
 .rel.text.stdio_get_by_name
                0x0000000060838e98        0x8 arch/arm/cpu/armv7/start.o
 .rel.text.stdio_register_dev
                0x0000000060838ea0        0x8 arch/arm/cpu/armv7/start.o
 .rel.text.stdio_init_tables
                0x0000000060838ea8        0x8 arch/arm/cpu/armv7/start.o
 .rel.text.stdio_add_devices
                0x0000000060838eb0       0x28 arch/arm/cpu/armv7/start.o
 .rel.text.cli_simple_parse_line
                0x0000000000000000        0x0 arch/arm/cpu/armv7/start.o
 .rel.text.cli_simple_run_command
                0x0000000000000000        0x0 arch/arm/cpu/armv7/start.o
 .rel.text.cli_simple_loop
                0x0000000000000000        0x0 arch/arm/cpu/armv7/start.o
 .rel.text.do_run
                0x0000000060838ed8        0x8 arch/arm/cpu/armv7/start.o
 .rel.text.delete_char.part.0
                0x0000000060838ee0       0x10 arch/arm/cpu/armv7/start.o
 .rel.text.cread_add_char
                0x0000000060838ef0        0x8 arch/arm/cpu/armv7/start.o
 .rel.text.cli_readline_into_buffer
                0x0000000060838ef8       0xa8 arch/arm/cpu/armv7/start.o
 .rel.text.cli_readline
                0x0000000060838fa0        0x8 arch/arm/cpu/armv7/start.o
 .rel.text.find_cmd
                0x0000000060838fa8       0x10 arch/arm/cpu/armv7/start.o
 .rel.text.cmd_usage
                0x0000000060838fb8       0x18 arch/arm/cpu/armv7/start.o
 .rel.text._do_help
                0x0000000060838fd0       0x10 arch/arm/cpu/armv7/start.o
 .rel.text.cmd_get_data_size
                0x0000000060838fe0        0x8 arch/arm/cpu/armv7/start.o
 .rel.text.cmd_process
                0x0000000060838fe8        0x8 arch/arm/cpu/armv7/start.o
 .rel.text.cmd_process_error
                0x0000000000000000        0x0 arch/arm/cpu/armv7/start.o
 .rel.text.srec_decode
                0x0000000000000000        0x0 arch/arm/cpu/armv7/start.o
 .rel.text.xyzModem_get_hdr
                0x0000000000000000        0x0 arch/arm/cpu/armv7/start.o
 .rel.text.xyzModem_stream_open
                0x0000000000000000        0x0 arch/arm/cpu/armv7/start.o
 .rel.text.xyzModem_stream_read
                0x0000000000000000        0x0 arch/arm/cpu/armv7/start.o
 .rel.text.xyzModem_stream_close
                0x0000000000000000        0x0 arch/arm/cpu/armv7/start.o
 .rel.text.xyzModem_stream_terminate
                0x0000000000000000        0x0 arch/arm/cpu/armv7/start.o
 .rel.text.xyzModem_error
                0x0000000000000000        0x0 arch/arm/cpu/armv7/start.o
 .rel.rodata.boot_os
                0x0000000060838ff0       0x38 arch/arm/cpu/armv7/start.o
 .rel.rodata.keywords
                0x0000000060839028       0x90 arch/arm/cpu/armv7/start.o
 .rel.rodata.op_adv
                0x00000000608390b8       0x80 arch/arm/cpu/armv7/start.o
 .rel.rodata.uimage_comp
                0x0000000060839138       0x60 arch/arm/cpu/armv7/start.o
 .rel.rodata.uimage_os
                0x0000000060839198       0x98 arch/arm/cpu/armv7/start.o
 .rel.rodata.uimage_arch
                0x0000000060839230      0x188 arch/arm/cpu/armv7/start.o
 .rel.rodata.uimage_type
                0x00000000608393b8      0x168 arch/arm/cpu/armv7/start.o
 .rel.rodata.CSWTCH.100
                0x0000000060839520       0xa8 arch/arm/cpu/armv7/start.o
 .rel.rodata.CSWTCH.28
                0x0000000000000000        0x0 arch/arm/cpu/armv7/start.o
 .rel.data.hash_algo
                0x00000000608395c8       0x78 arch/arm/cpu/armv7/start.o
 .rel.data.reserved_list
                0x0000000060839640       0x58 arch/arm/cpu/armv7/start.o
 .rel.u_boot_list_2_cmd_2_showvar
                0x0000000060839698       0x20 arch/arm/cpu/armv7/start.o
 .rel.data.init_sequence_f
                0x00000000608396b8      0x108 arch/arm/cpu/armv7/start.o
 .rel.data.init_sequence_r
                0x00000000608397c0       0xc0 arch/arm/cpu/armv7/start.o
 .rel.u_boot_list_2_cmd_2_go
                0x0000000060839880       0x20 arch/arm/cpu/armv7/start.o
 .rel.u_boot_list_2_cmd_2_reset
                0x00000000608398a0       0x20 arch/arm/cpu/armv7/start.o
 .rel.u_boot_list_2_cmd_2_iminfo
                0x00000000608398c0       0x20 arch/arm/cpu/armv7/start.o
 .rel.u_boot_list_2_cmd_2_bootz
                0x00000000608398e0       0x20 arch/arm/cpu/armv7/start.o
 .rel.u_boot_list_2_cmd_2_bootm
                0x0000000060839900       0x20 arch/arm/cpu/armv7/start.o
 .rel.data.cmd_bootm_sub
                0x0000000060839920       0xd8 arch/arm/cpu/armv7/start.o
 .rel.u_boot_list_2_cmd_2_question_mark
                0x00000000608399f8       0x20 arch/arm/cpu/armv7/start.o
 .rel.u_boot_list_2_cmd_2_help
                0x0000000060839a18       0x20 arch/arm/cpu/armv7/start.o
 .rel.u_boot_list_2_cmd_2_version
                0x0000000060839a38       0x20 arch/arm/cpu/armv7/start.o
 .rel.u_boot_list_2_env_clbk_2_callbacks
                0x0000000060839a58       0x10 arch/arm/cpu/armv7/start.o
 .rel.u_boot_list_2_env_clbk_2_flags
                0x0000000060839a68       0x10 arch/arm/cpu/armv7/start.o
 .rel.data.env_name_spec
                0x0000000060839a78        0x8 arch/arm/cpu/armv7/start.o
 .rel.u_boot_list_2_cmd_2_source
                0x0000000060839a80       0x20 arch/arm/cpu/armv7/start.o
 .rel.u_boot_list_2_cmd_2_bdinfo
                0x0000000060839aa0       0x20 arch/arm/cpu/armv7/start.o
 .rel.u_boot_list_2_cmd_2_bootelf
                0x0000000060839ac0       0x20 arch/arm/cpu/armv7/start.o
 .rel.u_boot_list_2_cmd_2_bootvx
                0x0000000060839ae0       0x20 arch/arm/cpu/armv7/start.o
 .rel.u_boot_list_2_cmd_2_exit
                0x0000000060839b00       0x20 arch/arm/cpu/armv7/start.o
 .rel.u_boot_list_2_cmd_2_fatinfo
                0x0000000060839b20       0x20 arch/arm/cpu/armv7/start.o
 .rel.u_boot_list_2_cmd_2_fatsize
                0x0000000060839b40       0x20 arch/arm/cpu/armv7/start.o
 .rel.u_boot_list_2_cmd_2_fatload
                0x0000000060839b60       0x20 arch/arm/cpu/armv7/start.o
 .rel.u_boot_list_2_cmd_2_fatls
                0x0000000060839b80       0x20 arch/arm/cpu/armv7/start.o
 .rel.u_boot_list_2_cmd_2_fdt
                0x0000000060839ba0       0x20 arch/arm/cpu/armv7/start.o
 .rel.data.of_busses
                0x0000000000000000        0x0 arch/arm/cpu/armv7/start.o
 .rel.u_boot_list_2_cmd_2_protect
                0x0000000060839bc0       0x20 arch/arm/cpu/armv7/start.o
 .rel.u_boot_list_2_cmd_2_erase
                0x0000000060839be0       0x20 arch/arm/cpu/armv7/start.o
 .rel.u_boot_list_2_cmd_2_flinfo
                0x0000000060839c00       0x20 arch/arm/cpu/armv7/start.o
 .rel.u_boot_list_2_cmd_2_base
                0x0000000060839c20       0x20 arch/arm/cpu/armv7/start.o
 .rel.u_boot_list_2_cmd_2_cmp
                0x0000000060839c40       0x20 arch/arm/cpu/armv7/start.o
 .rel.u_boot_list_2_cmd_2_nm
                0x0000000060839c60       0x20 arch/arm/cpu/armv7/start.o
 .rel.u_boot_list_2_cmd_2_loop
                0x0000000060839c80       0x20 arch/arm/cpu/armv7/start.o
 .rel.u_boot_list_2_cmd_2_cp
                0x0000000060839ca0       0x20 arch/arm/cpu/armv7/start.o
 .rel.u_boot_list_2_cmd_2_mm
                0x0000000060839cc0       0x20 arch/arm/cpu/armv7/start.o
 .rel.u_boot_list_2_cmd_2_crc32
                0x0000000060839ce0       0x20 arch/arm/cpu/armv7/start.o
 .rel.u_boot_list_2_cmd_2_md
                0x0000000060839d00       0x20 arch/arm/cpu/armv7/start.o
 .rel.u_boot_list_2_cmd_2_mw
                0x0000000060839d20       0x20 arch/arm/cpu/armv7/start.o
 .rel.u_boot_list_2_cmd_2_mmcinfo
                0x0000000060839d40       0x20 arch/arm/cpu/armv7/start.o
 .rel.data.cmd_mmc
                0x0000000060839d60      0x140 arch/arm/cpu/armv7/start.o
 .rel.u_boot_list_2_cmd_2_mmc
                0x0000000060839ea0       0x20 arch/arm/cpu/armv7/start.o
 .rel.u_boot_list_2_cmd_2_ping
                0x0000000060839ec0       0x20 arch/arm/cpu/armv7/start.o
 .rel.u_boot_list_2_cmd_2_dhcp
                0x0000000060839ee0       0x20 arch/arm/cpu/armv7/start.o
 .rel.u_boot_list_2_cmd_2_bootp
                0x0000000060839f00       0x20 arch/arm/cpu/armv7/start.o
 .rel.u_boot_list_2_cmd_2_tftpboot
                0x0000000060839f20       0x20 arch/arm/cpu/armv7/start.o
 .rel.u_boot_list_2_cmd_2_pxe
                0x0000000060839f40       0x20 arch/arm/cpu/armv7/start.o
 .rel.data.cmd_pxe_sub
                0x0000000060839f60       0x40 arch/arm/cpu/armv7/start.o
 .rel.u_boot_list_2_cmd_2_sysboot
                0x0000000060839fa0       0x20 arch/arm/cpu/armv7/start.o
 .rel.data.pxe_default_paths
                0x0000000060839fc0       0x10 arch/arm/cpu/armv7/start.o
 .rel.u_boot_list_2_cmd_2_test
                0x0000000060839fd0       0x20 arch/arm/cpu/armv7/start.o
 .rel.u_boot_list_2_cmd_2_true
                0x0000000060839ff0       0x18 arch/arm/cpu/armv7/start.o
 .rel.u_boot_list_2_cmd_2_false
                0x000000006083a008       0x18 arch/arm/cpu/armv7/start.o
 .rel.u_boot_list_2_cmd_2_setenv
                0x000000006083a020       0x20 arch/arm/cpu/armv7/start.o
 .rel.u_boot_list_2_cmd_2_env
                0x000000006083a040       0x20 arch/arm/cpu/armv7/start.o
 .rel.u_boot_list_2_cmd_2_saveenv
                0x000000006083a060       0x20 arch/arm/cpu/armv7/start.o
 .rel.data.cmd_env_sub
                0x000000006083a080      0x100 arch/arm/cpu/armv7/start.o
 .rel.u_boot_list_2_cmd_2_printenv
                0x000000006083a180       0x20 arch/arm/cpu/armv7/start.o
 .rel.u_boot_list_2_cmd_2_run
                0x000000006083a1a0       0x20 arch/arm/cpu/armv7/start.o
 .rel.data.env_htab
                0x000000006083a1c0        0x8 arch/arm/cpu/armv7/start.o
 .rel.u_boot_list_2_env_clbk_2_console
                0x000000006083a1c8       0x10 arch/arm/cpu/armv7/start.o
 .rel.data.av_  0x000000006083a1d8      0x800 arch/arm/cpu/armv7/start.o
 .rel.u_boot_list_2_env_clbk_2_loadaddr
                0x000000006083a9d8       0x10 arch/arm/cpu/armv7/start.o
 .rel.data.stdio_names
                0x000000006083a9e8       0x18 arch/arm/cpu/armv7/start.o
 .rel.text.get_dev_hwpart
                0x000000006083aa00        0x8 arch/arm/cpu/armv7/start.o
 .rel.text.dev_print
                0x000000006083aa08      0x110 arch/arm/cpu/armv7/start.o
 .rel.text.print_part
                0x000000006083ab18       0xb0 arch/arm/cpu/armv7/start.o
 .rel.text.get_device
                0x000000006083abc8       0x18 arch/arm/cpu/armv7/start.o
 .rel.text.get_device_and_partition
                0x000000006083abe0       0x70 arch/arm/cpu/armv7/start.o
 .rel.text.test_block_type
                0x000000006083ac50       0x10 arch/arm/cpu/armv7/start.o
 .rel.text.print_partition_extended
                0x000000006083ac60       0x30 arch/arm/cpu/armv7/start.o
 .rel.text.get_partition_info_extended.constprop.2
                0x000000006083ac90       0x80 arch/arm/cpu/armv7/start.o
 .rel.text.print_part_dos
                0x000000006083ad10        0x8 arch/arm/cpu/armv7/start.o
 .rel.rodata.block_drvr
                0x000000006083ad18       0x18 arch/arm/cpu/armv7/start.o
 .rel.text.input_send_keycodes
                0x0000000000000000        0x0 arch/arm/cpu/armv7/start.o
 .rel.text.input_init
                0x0000000000000000        0x0 arch/arm/cpu/armv7/start.o
 .rel.text.input_stdio_register
                0x0000000000000000        0x0 arch/arm/cpu/armv7/start.o
 .rel.rodata.mod_exp_ops_sw
                0x000000006083ad30        0x8 arch/arm/cpu/armv7/start.o
 .rel.rodata.kbd_to_ansi364
                0x0000000000000000        0x0 arch/arm/cpu/armv7/start.o
 .rel.u_boot_list_2_uclass_2_mod_exp
                0x000000006083ad38        0x8 arch/arm/cpu/armv7/start.o
 .rel.u_boot_list_2_driver_info_2_mod_exp_sw
                0x000000006083ad40        0x8 arch/arm/cpu/armv7/start.o
 .rel.u_boot_list_2_driver_2_mod_exp_sw
                0x000000006083ad48       0x10 arch/arm/cpu/armv7/start.o
 .rel.text.host_set_ios
                0x000000006083ad58        0x8 arch/arm/cpu/armv7/start.o
 .rel.text.do_command
                0x000000006083ad60        0x8 arch/arm/cpu/armv7/start.o
 .rel.text.host_request
                0x000000006083ad68       0x38 arch/arm/cpu/armv7/start.o
 .rel.text.arm_pl180_mmci_init
                0x000000006083ada0        0x8 arch/arm/cpu/armv7/start.o
 .rel.text.mmc_set_capacity
                0x000000006083ada8       0x40 arch/arm/cpu/armv7/start.o
 .rel.text.mmc_send_status
                0x000000006083ade8       0x10 arch/arm/cpu/armv7/start.o
 .rel.text.find_mmc_device
                0x000000006083adf8       0x10 arch/arm/cpu/armv7/start.o
 .rel.text.mmc_bread
                0x000000006083ae08       0x10 arch/arm/cpu/armv7/start.o
 .rel.text.mmc_select_hwpart
                0x000000006083ae18        0x8 arch/arm/cpu/armv7/start.o
 .rel.text.mmc_hwpart_config
                0x000000006083ae20       0x48 arch/arm/cpu/armv7/start.o
 .rel.text.mmc_startup
                0x000000006083ae68       0xa8 arch/arm/cpu/armv7/start.o
 .rel.text.mmc_register
                0x0000000000000000        0x0 arch/arm/cpu/armv7/start.o
 .rel.text.mmc_create
                0x000000006083af10       0x28 arch/arm/cpu/armv7/start.o
 .rel.text.mmc_start_init
                0x000000006083af38       0x10 arch/arm/cpu/armv7/start.o
 .rel.text.print_mmc_devices
                0x000000006083af48       0x40 arch/arm/cpu/armv7/start.o
 .rel.text.get_mmc_num
                0x000000006083af88        0x8 arch/arm/cpu/armv7/start.o
 .rel.text.mmc_initialize
                0x000000006083af90       0x18 arch/arm/cpu/armv7/start.o
 .rel.text.mmc_berase
                0x000000006083afa8       0x10 arch/arm/cpu/armv7/start.o
 .rel.text.mmc_bwrite
                0x000000006083afb8       0x18 arch/arm/cpu/armv7/start.o
 .rel.rodata.arm_pl180_mmci_ops
                0x000000006083afd0       0x18 arch/arm/cpu/armv7/start.o
 .rel.text.flash_isequal
                0x000000006083afe8       0x40 arch/arm/cpu/armv7/start.o
 .rel.text.flash_isset
                0x000000006083b028       0x40 arch/arm/cpu/armv7/start.o
 .rel.text.find_sector
                0x000000006083b068       0x10 arch/arm/cpu/armv7/start.o
 .rel.text.flash_add_byte.isra.5
                0x000000006083b078       0x40 arch/arm/cpu/armv7/start.o
 .rel.text.cfi_flash_bank_addr
                0x000000006083b0b8        0x8 arch/arm/cpu/armv7/start.o
 .rel.text.flash_get_info
                0x000000006083b0c0        0x8 arch/arm/cpu/armv7/start.o
 .rel.text.flash_write_cmd
                0x000000006083b0c8       0x40 arch/arm/cpu/armv7/start.o
 .rel.text.flash_status_check
                0x000000006083b108       0x48 arch/arm/cpu/armv7/start.o
 .rel.text.flash_full_status_check
                0x000000006083b150       0x30 arch/arm/cpu/armv7/start.o
 .rel.text.flash_write_cfiword
                0x000000006083b180       0x88 arch/arm/cpu/armv7/start.o
 .rel.text.flash_erase
                0x000000006083b208       0x30 arch/arm/cpu/armv7/start.o
 .rel.text.flash_print_info
                0x000000006083b238       0xa0 arch/arm/cpu/armv7/start.o
 .rel.text.write_buff
                0x000000006083b2d8      0x110 arch/arm/cpu/armv7/start.o
 .rel.text.flash_real_protect
                0x000000006083b3e8       0x18 arch/arm/cpu/armv7/start.o
 .rel.text.flash_get_size
                0x000000006083b400       0x30 arch/arm/cpu/armv7/start.o
 .rel.text.flash_protect_default
                0x000000006083b430        0x8 arch/arm/cpu/armv7/start.o
 .rel.text.flash_init
                0x000000006083b438       0x20 arch/arm/cpu/armv7/start.o
 .rel.text.smc911x_rx
                0x000000006083b458       0x10 arch/arm/cpu/armv7/start.o
 .rel.text.smc911x_send
                0x000000006083b468       0x38 arch/arm/cpu/armv7/start.o
 .rel.text.smc911x_handle_mac_address
                0x000000006083b4a0        0x8 arch/arm/cpu/armv7/start.o
 .rel.text.smc911x_reset
                0x000000006083b4a8       0x10 arch/arm/cpu/armv7/start.o
 .rel.text.smc911x_init
                0x000000006083b4b8       0x18 arch/arm/cpu/armv7/start.o
 .rel.text.smc911x_initialize
                0x000000006083b4d0       0x48 arch/arm/cpu/armv7/start.o
 .rel.rodata.chip_ids
                0x000000006083b518       0x60 arch/arm/cpu/armv7/start.o
 .rel.text.get_current
                0x000000006083b578       0x10 arch/arm/cpu/armv7/start.o
 .rel.text.serial_register
                0x000000006083b588        0x8 arch/arm/cpu/armv7/start.o
 .rel.text.serial_stdio_init
                0x000000006083b590       0x38 arch/arm/cpu/armv7/start.o
 .rel.text.serial_assign
                0x000000006083b5c8       0x10 arch/arm/cpu/armv7/start.o
 .rel.text.serial_reinit_all
                0x0000000000000000        0x0 arch/arm/cpu/armv7/start.o
 .rel.text.on_baudrate
                0x000000006083b5d8       0x18 arch/arm/cpu/armv7/start.o
 .rel.text.pl01x_serial_putc
                0x000000006083b5f0        0x8 arch/arm/cpu/armv7/start.o
 .rel.text.pl01x_serial_getc
                0x000000006083b5f8        0x8 arch/arm/cpu/armv7/start.o
 .rel.text.pl01x_serial_tstc
                0x000000006083b600        0x8 arch/arm/cpu/armv7/start.o
 .rel.text.pl01x_serial_init_baud
                0x000000006083b608        0x8 arch/arm/cpu/armv7/start.o
 .rel.text.pl01x_serial_setbrg
                0x000000006083b610        0x8 arch/arm/cpu/armv7/start.o
 .rel.text.pl01x_serial_initialize
                0x000000006083b618        0x8 arch/arm/cpu/armv7/start.o
 .rel.text.default_serial_console
                0x000000006083b620        0x8 arch/arm/cpu/armv7/start.o
 .rel.u_boot_list_2_env_clbk_2_baudrate
                0x000000006083b628       0x10 arch/arm/cpu/armv7/start.o
 .rel.data.pl01x_serial_drv
                0x000000006083b638       0x30 arch/arm/cpu/armv7/start.o
 .rel.text.spi_set_wordlen
                0x0000000000000000        0x0 arch/arm/cpu/armv7/start.o
 .rel.text.fs_probe_unsupported
                0x000000006083b668        0x8 arch/arm/cpu/armv7/start.o
 .rel.text.fs_get_info
                0x000000006083b670        0x8 arch/arm/cpu/armv7/start.o
 .rel.text.fs_close
                0x000000006083b678        0x8 arch/arm/cpu/armv7/start.o
 .rel.text.fs_set_blk_dev
                0x000000006083b680       0x20 arch/arm/cpu/armv7/start.o
 .rel.text.fs_uuid
                0x0000000000000000        0x0 arch/arm/cpu/armv7/start.o
 .rel.text.fs_ls
                0x000000006083b6a0        0x8 arch/arm/cpu/armv7/start.o
 .rel.text.fs_exists
                0x000000006083b6a8        0x8 arch/arm/cpu/armv7/start.o
 .rel.text.fs_size
                0x000000006083b6b0        0x8 arch/arm/cpu/armv7/start.o
 .rel.text.fs_read
                0x000000006083b6b8       0x10 arch/arm/cpu/armv7/start.o
 .rel.text.fs_write
                0x0000000000000000        0x0 arch/arm/cpu/armv7/start.o
 .rel.text.do_size
                0x000000006083b6c8        0x8 arch/arm/cpu/armv7/start.o
 .rel.text.do_load
                0x000000006083b6d0       0x48 arch/arm/cpu/armv7/start.o
 .rel.text.do_ls
                0x000000006083b718        0x8 arch/arm/cpu/armv7/start.o
 .rel.text.do_save
                0x0000000000000000        0x0 arch/arm/cpu/armv7/start.o
 .rel.text.do_fs_uuid
                0x0000000000000000        0x0 arch/arm/cpu/armv7/start.o
 .rel.text.do_fs_type
                0x0000000000000000        0x0 arch/arm/cpu/armv7/start.o
 .rel.text.downcase
                0x000000006083b720        0x8 arch/arm/cpu/armv7/start.o
 .rel.text.disk_read
                0x000000006083b728       0x10 arch/arm/cpu/armv7/start.o
 .rel.text.get_cluster
                0x000000006083b738        0x8 arch/arm/cpu/armv7/start.o
 .rel.text.read_bootsectandvi
                0x000000006083b740       0x20 arch/arm/cpu/armv7/start.o
 .rel.text.get_vfatname
                0x000000006083b760       0x10 arch/arm/cpu/armv7/start.o
 .rel.text.fat_set_blk_dev
                0x000000006083b770       0x28 arch/arm/cpu/armv7/start.o
 .rel.text.fat_register_device
                0x0000000000000000        0x0 arch/arm/cpu/armv7/start.o
 .rel.text.do_fat_read_at
                0x000000006083b798       0x58 arch/arm/cpu/armv7/start.o
 .rel.text.file_fat_detectfs
                0x000000006083b7f0       0xb0 arch/arm/cpu/armv7/start.o
 .rel.text.file_fat_read_at
                0x000000006083b8a0        0x8 arch/arm/cpu/armv7/start.o
 .rel.text.fat_read_file
                0x000000006083b8a8        0x8 arch/arm/cpu/armv7/start.o
 .rel.text.file_getfsname
                0x0000000000000000        0x0 arch/arm/cpu/armv7/start.o
 .rel.text.file_cd
                0x0000000000000000        0x0 arch/arm/cpu/armv7/start.o
 .rel.text.file_detectfs
                0x0000000000000000        0x0 arch/arm/cpu/armv7/start.o
 .rel.text.file_ls
                0x0000000000000000        0x0 arch/arm/cpu/armv7/start.o
 .rel.text.file_read
                0x0000000000000000        0x0 arch/arm/cpu/armv7/start.o
 .rel.rodata.filesystems
                0x0000000000000000        0x0 arch/arm/cpu/armv7/start.o
 .rel.data.fstypes
                0x000000006083b8b0       0x90 arch/arm/cpu/armv7/start.o
 .rel.text.inflate_fast
                0x000000006083b940       0x18 arch/arm/cpu/armv7/start.o
 .rel.text.inflate_table
                0x000000006083b958       0x20 arch/arm/cpu/armv7/start.o
 .rel.text.inflateInit2_
                0x000000006083b978       0x10 arch/arm/cpu/armv7/start.o
 .rel.text.inflate
                0x000000006083b988      0x188 arch/arm/cpu/armv7/start.o
 .rel.text.fdt_next_tag
                0x000000006083bb10       0x48 arch/arm/cpu/armv7/start.o
 .rel.text.fdt_get_phandle
                0x0000000000000000        0x0 arch/arm/cpu/armv7/start.o
 .rel.text.fdt_get_alias_namelen
                0x000000006083bb58        0x8 arch/arm/cpu/armv7/start.o
 .rel.text.fdt_node_check_compatible
                0x0000000000000000        0x0 arch/arm/cpu/armv7/start.o
 .rel.text.fdt_strerror
                0x000000006083bb60       0x20 arch/arm/cpu/armv7/start.o
 .rel.text.fdt_find_regions
                0x0000000000000000        0x0 arch/arm/cpu/armv7/start.o
 .rel.text.fdt_create_empty_tree
                0x0000000000000000        0x0 arch/arm/cpu/armv7/start.o
 .rel.text.fdt_address_cells
                0x000000006083bb80        0x8 arch/arm/cpu/armv7/start.o
 .rel.text.fdt_size_cells
                0x000000006083bb88        0x8 arch/arm/cpu/armv7/start.o
 .rel.text.fdt_add_alias_regions
                0x0000000000000000        0x0 arch/arm/cpu/armv7/start.o
 .rel.text.fdt_next_region
                0x0000000000000000        0x0 arch/arm/cpu/armv7/start.o
 .rel.text.crc7
                0x0000000000000000        0x0 arch/arm/cpu/armv7/start.o
 .rel.text.cyg_crc16
                0x0000000000000000        0x0 arch/arm/cpu/armv7/start.o
 .rel.text.gzwrite_progress
                0x0000000000000000        0x0 arch/arm/cpu/armv7/start.o
 .rel.text.gzwrite_progress_finish
                0x0000000000000000        0x0 arch/arm/cpu/armv7/start.o
 .rel.text.gzwrite
                0x0000000000000000        0x0 arch/arm/cpu/armv7/start.o
 .rel.text.zunzip
                0x000000006083bb90       0x28 arch/arm/cpu/armv7/start.o
 .rel.text.gunzip
                0x000000006083bbb8       0x10 arch/arm/cpu/armv7/start.o
 .rel.text.initcall_run_list
                0x000000006083bbc8        0x8 arch/arm/cpu/armv7/start.o
 .rel.text.lmb_alloc_base
                0x000000006083bbd0        0x8 arch/arm/cpu/armv7/start.o
 .rel.text.sha1_finish
                0x000000006083bbd8        0x8 arch/arm/cpu/armv7/start.o
 .rel.text.sha256_finish
                0x000000006083bbe0        0x8 arch/arm/cpu/armv7/start.o
 .rel.text.strmhz
                0x0000000000000000        0x0 arch/arm/cpu/armv7/start.o
 .rel.text.list_sort
                0x0000000000000000        0x0 arch/arm/cpu/armv7/start.o
 .rel.text.match_string
                0x000000006083bbe8        0x8 arch/arm/cpu/armv7/start.o
 .rel.text.match_entry
                0x000000006083bbf0        0x8 arch/arm/cpu/armv7/start.o
 .rel.text.hcreate_r
                0x000000006083bbf8        0x8 arch/arm/cpu/armv7/start.o
 .rel.text.hdestroy_r
                0x000000006083bc00        0x8 arch/arm/cpu/armv7/start.o
 .rel.text.hmatch_r
                0x0000000000000000        0x0 arch/arm/cpu/armv7/start.o
 .rel.text.hsearch_r
                0x000000006083bc08        0x8 arch/arm/cpu/armv7/start.o
 .rel.text.hdelete_r
                0x000000006083bc10        0x8 arch/arm/cpu/armv7/start.o
 .rel.text.hexport_r
                0x000000006083bc18       0x18 arch/arm/cpu/armv7/start.o
 .rel.text.himport_r
                0x000000006083bc30       0x20 arch/arm/cpu/armv7/start.o
 .rel.text.display_options
                0x000000006083bc50       0x10 arch/arm/cpu/armv7/start.o
 .rel.text.print_freq
                0x0000000000000000        0x0 arch/arm/cpu/armv7/start.o
 .rel.text.print_size
                0x000000006083bc60       0x28 arch/arm/cpu/armv7/start.o
 .rel.text.print_buffer
                0x000000006083bc88       0x28 arch/arm/cpu/armv7/start.o
 .rel.text.crc32_no_comp
                0x000000006083bcb0        0x8 arch/arm/cpu/armv7/start.o
 .rel.text.hang
                0x000000006083bcb8        0x8 arch/arm/cpu/armv7/start.o
 .rel.text.skip_spaces
                0x000000006083bcc0        0x8 arch/arm/cpu/armv7/start.o
 .rel.text.strim
                0x000000006083bcc8        0x8 arch/arm/cpu/armv7/start.o
 .rel.text.emit
                0x000000006083bcd0        0x8 arch/arm/cpu/armv7/start.o
 .rel.text.store_char_in_data
                0x000000006083bcd8        0x8 arch/arm/cpu/armv7/start.o
 .rel.text.match
                0x000000006083bce0       0x98 arch/arm/cpu/armv7/start.o
 .rel.text.fixup_branch
                0x000000006083bd78        0x8 arch/arm/cpu/armv7/start.o
 .rel.text.quantifier
                0x000000006083bd80        0x8 arch/arm/cpu/armv7/start.o
 .rel.text.compile
                0x000000006083bd88       0x28 arch/arm/cpu/armv7/start.o
 .rel.text.slre_compile
                0x000000006083bdb0        0x8 arch/arm/cpu/armv7/start.o
 .rel.text.strncasecmp
                0x000000006083bdb8        0x8 arch/arm/cpu/armv7/start.o
 .rel.text.strtok
                0x0000000000000000        0x0 arch/arm/cpu/armv7/start.o
 .rel.text.uuid_str_valid
                0x000000006083bdc0        0x8 arch/arm/cpu/armv7/start.o
 .rel.text.uuid_bin_to_str
                0x0000000000000000        0x0 arch/arm/cpu/armv7/start.o
 .rel.text.string.isra.0
                0x000000006083bdc8        0x8 arch/arm/cpu/armv7/start.o
 .rel.text.number.isra.4
                0x000000006083bdd0        0x8 arch/arm/cpu/armv7/start.o
 .rel.text.vsnprintf_internal.isra.6
                0x000000006083bdd8       0x10 arch/arm/cpu/armv7/start.o
 .rel.text.simple_strtoul
                0x000000006083bde8        0x8 arch/arm/cpu/armv7/start.o
 .rel.text.simple_strtoull
                0x000000006083bdf0        0x8 arch/arm/cpu/armv7/start.o
 .rel.text.trailing_strtoln
                0x0000000000000000        0x0 arch/arm/cpu/armv7/start.o
 .rel.text.__assert_fail
                0x0000000000000000        0x0 arch/arm/cpu/armv7/start.o
 .rel.text.simple_itoa
                0x000000006083bdf8        0x8 arch/arm/cpu/armv7/start.o
 .rel.text.print_grouped_ull
                0x0000000000000000        0x0 arch/arm/cpu/armv7/start.o
 .rel.rodata.z_errmsg
                0x0000000000000000        0x0 arch/arm/cpu/armv7/start.o
 .rel.rodata.fdt_errtable
                0x000000006083be00       0x58 arch/arm/cpu/armv7/start.o
 .rel.data.current
                0x0000000000000000        0x0 arch/arm/cpu/armv7/start.o
 .rel.text.arp_init
                0x000000006083be58       0x30 arch/arm/cpu/armv7/start.o
 .rel.text.arp_raw_request
                0x000000006083be88       0x18 arch/arm/cpu/armv7/start.o
 .rel.text.arp_request
                0x000000006083bea0       0x38 arch/arm/cpu/armv7/start.o
 .rel.text.arp_timeout_check
                0x000000006083bed8       0x20 arch/arm/cpu/armv7/start.o
 .rel.text.arp_receive
                0x000000006083bef8       0x40 arch/arm/cpu/armv7/start.o
 .rel.text.dhcp_extended
                0x000000006083bf38       0x18 arch/arm/cpu/armv7/start.o
 .rel.text.dhcp_process_options
                0x000000006083bf50       0x68 arch/arm/cpu/armv7/start.o
 .rel.text.dhcp_handler
                0x000000006083bfb8       0x88 arch/arm/cpu/armv7/start.o
 .rel.text.bootp_reset
                0x000000006083c040       0x20 arch/arm/cpu/armv7/start.o
 .rel.text.bootp_request
                0x000000006083c060       0x60 arch/arm/cpu/armv7/start.o
 .rel.text.bootp_timeout_handler
                0x000000006083c0c0       0x20 arch/arm/cpu/armv7/start.o
 .rel.text.on_ethaddr
                0x000000006083c0e0        0x8 arch/arm/cpu/armv7/start.o
 .rel.text.eth_setenv_enetaddr
                0x000000006083c0e8        0x8 arch/arm/cpu/armv7/start.o
 .rel.text.eth_getenv_enetaddr_by_index
                0x000000006083c0f0       0x10 arch/arm/cpu/armv7/start.o
 .rel.text.eth_get_dev_by_name
                0x000000006083c100       0x28 arch/arm/cpu/armv7/start.o
 .rel.text.eth_get_dev_by_index
                0x000000006083c128        0x8 arch/arm/cpu/armv7/start.o
 .rel.text.eth_get_dev_index
                0x000000006083c130        0x8 arch/arm/cpu/armv7/start.o
 .rel.text.eth_write_hwaddr
                0x000000006083c138       0x58 arch/arm/cpu/armv7/start.o
 .rel.text.eth_halt
                0x000000006083c190        0x8 arch/arm/cpu/armv7/start.o
 .rel.text.eth_send
                0x000000006083c198        0x8 arch/arm/cpu/armv7/start.o
 .rel.text.eth_rx
                0x000000006083c1a0        0x8 arch/arm/cpu/armv7/start.o
 .rel.text.eth_get_name
                0x000000006083c1a8       0x10 arch/arm/cpu/armv7/start.o
 .rel.text.eth_current_changed
                0x000000006083c1b8       0x10 arch/arm/cpu/armv7/start.o
 .rel.text.eth_register
                0x000000006083c1c8       0x18 arch/arm/cpu/armv7/start.o
 .rel.text.eth_unregister
                0x0000000000000000        0x0 arch/arm/cpu/armv7/start.o
 .rel.text.eth_initialize
                0x000000006083c1e0       0x78 arch/arm/cpu/armv7/start.o
 .rel.text.eth_try_another
                0x000000006083c258       0x28 arch/arm/cpu/armv7/start.o
 .rel.text.eth_init
                0x000000006083c280       0x10 arch/arm/cpu/armv7/start.o
 .rel.text.eth_set_current
                0x000000006083c290       0x28 arch/arm/cpu/armv7/start.o
 .rel.text.start_again_timeout_handler
                0x000000006083c2b8        0x8 arch/arm/cpu/armv7/start.o
 .rel.text.on_ipaddr
                0x000000006083c2c0        0x8 arch/arm/cpu/armv7/start.o
 .rel.text.on_gatewayip
                0x000000006083c2c8        0x8 arch/arm/cpu/armv7/start.o
 .rel.text.on_netmask
                0x000000006083c2d0        0x8 arch/arm/cpu/armv7/start.o
 .rel.text.on_serverip
                0x000000006083c2d8        0x8 arch/arm/cpu/armv7/start.o
 .rel.text.net_init_loop
                0x000000006083c2e0       0x10 arch/arm/cpu/armv7/start.o
 .rel.text.net_clear_handlers
                0x000000006083c2f0       0x20 arch/arm/cpu/armv7/start.o
 .rel.text.net_auto_load
                0x000000006083c310       0x10 arch/arm/cpu/armv7/start.o
 .rel.text.net_init
                0x000000006083c320       0x20 arch/arm/cpu/armv7/start.o
 .rel.text.net_start_again
                0x000000006083c340       0x78 arch/arm/cpu/armv7/start.o
 .rel.text.net_loop
                0x000000006083c3b8      0x170 arch/arm/cpu/armv7/start.o
 .rel.text.net_get_udp_handler
                0x0000000000000000        0x0 arch/arm/cpu/armv7/start.o
 .rel.text.net_set_udp_handler
                0x000000006083c528       0x10 arch/arm/cpu/armv7/start.o
 .rel.text.net_get_arp_handler
                0x000000006083c538        0x8 arch/arm/cpu/armv7/start.o
 .rel.text.net_set_arp_handler
                0x0000000000000000        0x0 arch/arm/cpu/armv7/start.o
 .rel.text.net_set_timeout_handler
                0x000000006083c540       0x18 arch/arm/cpu/armv7/start.o
 .rel.text.net_process_received_packet
                0x000000006083c558       0x38 arch/arm/cpu/armv7/start.o
 .rel.text.net_eth_hdr_size
                0x000000006083c590        0x8 arch/arm/cpu/armv7/start.o
 .rel.text.net_set_ether
                0x000000006083c598       0x10 arch/arm/cpu/armv7/start.o
 .rel.text.net_update_ether
                0x000000006083c5a8        0x8 arch/arm/cpu/armv7/start.o
 .rel.text.net_set_ip_header
                0x000000006083c5b0        0x8 arch/arm/cpu/armv7/start.o
 .rel.text.net_set_udp_header
                0x000000006083c5b8        0x8 arch/arm/cpu/armv7/start.o
 .rel.text.net_send_udp_packet
                0x000000006083c5c0       0x40 arch/arm/cpu/armv7/start.o
 .rel.text.on_bootfile
                0x000000006083c600        0x8 arch/arm/cpu/armv7/start.o
 .rel.text.ip_to_string
                0x000000006083c608        0x8 arch/arm/cpu/armv7/start.o
 .rel.text.vlan_to_string
                0x0000000000000000        0x0 arch/arm/cpu/armv7/start.o
 .rel.text.on_nvlan
                0x000000006083c610        0x8 arch/arm/cpu/armv7/start.o
 .rel.text.on_vlan
                0x000000006083c618        0x8 arch/arm/cpu/armv7/start.o
 .rel.text.ping_timeout_handler
                0x000000006083c620        0x8 arch/arm/cpu/armv7/start.o
 .rel.text.ping_start
                0x000000006083c628       0x58 arch/arm/cpu/armv7/start.o
 .rel.text.ping_receive
                0x000000006083c680       0x18 arch/arm/cpu/armv7/start.o
 .rel.text.tftp_send
                0x000000006083c698       0xb8 arch/arm/cpu/armv7/start.o
 .rel.text.tftp_handler
                0x000000006083c750       0xc8 arch/arm/cpu/armv7/start.o
 .rel.text.tftp_timeout_handler
                0x000000006083c818       0x40 arch/arm/cpu/armv7/start.o
 .rel.text.tftp_start
                0x000000006083c858      0x130 arch/arm/cpu/armv7/start.o
 .rel.u_boot_list_2_env_clbk_2_ethaddr
                0x000000006083c988       0x10 arch/arm/cpu/armv7/start.o
 .rel.u_boot_list_2_env_clbk_2_ipaddr
                0x000000006083c998       0x10 arch/arm/cpu/armv7/start.o
 .rel.u_boot_list_2_env_clbk_2_vlan
                0x000000006083c9a8       0x10 arch/arm/cpu/armv7/start.o
 .rel.u_boot_list_2_env_clbk_2_serverip
                0x000000006083c9b8       0x10 arch/arm/cpu/armv7/start.o
 .rel.u_boot_list_2_env_clbk_2_bootfile
                0x000000006083c9c8       0x10 arch/arm/cpu/armv7/start.o
 .rel.u_boot_list_2_env_clbk_2_netmask
                0x000000006083c9d8       0x10 arch/arm/cpu/armv7/start.o
 .rel.u_boot_list_2_env_clbk_2_nvlan
                0x000000006083c9e8       0x10 arch/arm/cpu/armv7/start.o
 .rel.u_boot_list_2_env_clbk_2_gatewayip
                0x000000006083c9f8       0x10 arch/arm/cpu/armv7/start.o
 .rel.text.raise
                0x000000006083ca08        0x8 arch/arm/cpu/armv7/start.o

.rel_dyn_end    0x000000006083ca10        0x0
 *(.__rel_dyn_end)
 .__rel_dyn_end
                0x000000006083ca10        0x0 arch/arm/lib/built-in.o

.end            0x000000006083ca10        0x0
 *(.__end)
 .__end         0x000000006083ca10        0x0 arch/arm/lib/built-in.o
                0x000000006083ca10                _image_binary_end = .
                0x000000006083d000                . = ALIGN (0x1000)

.mmutable
 *(.mmutable)

.bss_start      0x00000000608369e8        0x0
 *(.__bss_start)
 .__bss_start   0x00000000608369e8        0x0 arch/arm/lib/built-in.o
                0x00000000608369e8                __bss_start
                0x00000000608369e8                __bss_base = .

.bss            0x00000000608369e8    0x366d0
 *(.bss*)
 .bss.params    0x00000000608369e8        0x4 arch/arm/lib/built-in.o
 .bss.flag_repeat
                0x00000000608369ec        0x4 common/built-in.o
 .bss.the_command.7635
                0x00000000608369f0      0x201 common/built-in.o
 *fill*         0x0000000060836bf1        0x3 
 .bss.ifs       0x0000000060836bf4        0x4 common/built-in.o
 .bss.buf.7835  0x0000000060836bf8       0x28 common/built-in.o
 .bss.last_return_code
                0x0000000060836c20        0x4 common/built-in.o
 .bss.map       0x0000000060836c24      0x100 common/built-in.o
 .bss.do_repeat
                0x0000000060836d24        0x4 common/built-in.o
 .bss.top_vars  0x0000000060836d28        0x4 common/built-in.o
 .bss.stored_bootdelay
                0x0000000060836d2c        0x4 common/built-in.o
 .bss.monitor_flash_len
                0x0000000060836d30        0x4 common/built-in.o
                0x0000000060836d30                monitor_flash_len
 .bss.images    0x0000000060836d34      0x164 common/built-in.o
                0x0000000060836d34                images
 .bss.callback_list
                0x0000000060836e98        0x4 common/built-in.o
 .bss.flags_list
                0x0000000060836e9c        0x4 common/built-in.o
 .bss.data.7521
                0x0000000060836ea0      0x400 common/built-in.o
 .bss.working_fdt
                0x00000000608372a0        0x4 common/built-in.o
                0x00000000608372a0                working_fdt
 .bss.dp_last_addr
                0x00000000608372a4        0x4 common/built-in.o
 .bss.base_address
                0x00000000608372a8        0x4 common/built-in.o
 .bss.mm_last_size
                0x00000000608372ac        0x4 common/built-in.o
 .bss.mm_last_addr
                0x00000000608372b0        0x4 common/built-in.o
 .bss.dp_last_size
                0x00000000608372b4        0x4 common/built-in.o
 .bss.do_getfile
                0x00000000608372b8        0x4 common/built-in.o
 .bss.is_pxe    0x00000000608372bc        0x1 common/built-in.o
 *fill*         0x00000000608372bd        0x3 
 .bss.fs_argv   0x00000000608372c0       0x14 common/built-in.o
 .bss.ctrlc_was_pressed
                0x00000000608372d4        0x4 common/built-in.o
 .bss.ctrlc_disabled
                0x00000000608372d8        0x4 common/built-in.o
 .bss.max_total_mem
                0x00000000608372dc        0x4 common/built-in.o
 .bss.mem_malloc_brk
                0x00000000608372e0        0x4 common/built-in.o
                0x00000000608372e0                mem_malloc_brk
 .bss.max_sbrked_mem
                0x00000000608372e4        0x4 common/built-in.o
 .bss.current_mallinfo
                0x00000000608372e8       0x28 common/built-in.o
 .bss.mem_malloc_end
                0x0000000060837310        0x4 common/built-in.o
                0x0000000060837310                mem_malloc_end
 .bss.top_pad   0x0000000060837314        0x4 common/built-in.o
 .bss.mem_malloc_start
                0x0000000060837318        0x4 common/built-in.o
                0x0000000060837318                mem_malloc_start
 .bss.devs      0x000000006083731c       0x4c common/built-in.o
 .bss.stdio_devices
                0x0000000060837368        0xc common/built-in.o
                0x0000000060837368                stdio_devices
 .bss.hist_list
                0x0000000060837374       0x50 common/built-in.o
 .bss.hist_lines
                0x00000000608373c4     0x2814 common/built-in.o
 .bss.hist_max  0x0000000060839bd8        0x4 common/built-in.o
 .bss.initted.7509
                0x0000000060839bdc        0x4 common/built-in.o
 .bss.hist_add_idx
                0x0000000060839be0        0x4 common/built-in.o
 .bss.hist_num  0x0000000060839be4        0x4 common/built-in.o
 .bss.console_buffer
                0x0000000060839be8      0x201 common/built-in.o
                0x0000000060839be8                console_buffer
 *fill*         0x0000000060839de9        0x3 
 .bss.initialized.7982
                0x0000000060839dec        0x4 drivers/mmc/built-in.o
 .bss.mmc_devices
                0x0000000060839df0        0x8 drivers/mmc/built-in.o
 .bss.saved_sector.8053
                0x0000000060839df8        0x4 drivers/mtd/built-in.o
 .bss.saved_info.8054
                0x0000000060839dfc        0x4 drivers/mtd/built-in.o
 .bss.flash_info
                0x0000000060839e00      0xaa0 drivers/mtd/built-in.o
                0x0000000060839e00                flash_info
 .bss.serial_devices
                0x000000006083a8a0        0x4 drivers/serial/built-in.o
 .bss.serial_current
                0x000000006083a8a4        0x4 drivers/serial/built-in.o
 .bss.fs_partition
                0x000000006083a8a8       0x50 fs/built-in.o
 .bss.fs_type   0x000000006083a8f8        0x4 fs/built-in.o
 .bss.fs_dev_desc
                0x000000006083a8fc        0x4 fs/built-in.o
 *fill*         0x000000006083a900        0x0 
 .bss.do_fat_read_at_block
                0x000000006083a900    0x10000 fs/built-in.o
                0x000000006083a900                do_fat_read_at_block
 .bss.get_dentfromdir_block
                0x000000006084a900    0x10000 fs/built-in.o
                0x000000006084a900                get_dentfromdir_block
 .bss.cur_part_info
                0x000000006085a900       0x50 fs/built-in.o
 *fill*         0x000000006085a950       0x30 
 .bss.get_contents_vfatname_block
                0x000000006085a980    0x10000 fs/built-in.o
                0x000000006085a980                get_contents_vfatname_block
 .bss.cur_dev   0x000000006086a980        0x4 fs/built-in.o
 .bss.errno     0x000000006086a984        0x4 lib/built-in.o
                0x000000006086a984                errno
 .bss.local.7641
                0x000000006086a988       0x16 lib/built-in.o
 .bss.arp_tx_packet_buf
                0x000000006086a99e      0x640 net/built-in.o
 *fill*         0x000000006086afde        0x2 
 .bss.arp_wait_packet_ethaddr
                0x000000006086afe0        0x4 net/built-in.o
                0x000000006086afe0                arp_wait_packet_ethaddr
 .bss.arp_tx_packet
                0x000000006086afe4        0x4 net/built-in.o
 .bss.arp_wait_tx_packet_size
                0x000000006086afe8        0x4 net/built-in.o
                0x000000006086afe8                arp_wait_tx_packet_size
 .bss.arp_wait_try
                0x000000006086afec        0x4 net/built-in.o
                0x000000006086afec                arp_wait_try
 .bss.net_arp_wait_reply_ip
                0x000000006086aff0        0x4 net/built-in.o
 .bss.net_arp_wait_packet_ip
                0x000000006086aff4        0x4 net/built-in.o
                0x000000006086aff4                net_arp_wait_packet_ip
 .bss.arp_wait_timer_start
                0x000000006086aff8        0x4 net/built-in.o
                0x000000006086aff8                arp_wait_timer_start
 .bss.dhcp_state
                0x000000006086affc        0x4 net/built-in.o
 .bss.net_hostname
                0x000000006086b000       0x20 net/built-in.o
                0x000000006086b000                net_hostname
 .bss.bootp_timeout
                0x000000006086b020        0x4 net/built-in.o
                0x000000006086b020                bootp_timeout
 .bss.dhcp_server_ip
                0x000000006086b024        0x4 net/built-in.o
 .bss.net_root_path
                0x000000006086b028       0x40 net/built-in.o
                0x000000006086b028                net_root_path
 .bss.bootp_ids
                0x000000006086b068       0x10 net/built-in.o
                0x000000006086b068                bootp_ids
 .bss.bootp_num_ids
                0x000000006086b078        0x4 net/built-in.o
                0x000000006086b078                bootp_num_ids
 .bss.bootp_try
                0x000000006086b07c        0x4 net/built-in.o
                0x000000006086b07c                bootp_try
 .bss.bootp_start
                0x000000006086b080        0x4 net/built-in.o
                0x000000006086b080                bootp_start
 .bss.dhcp_leasetime
                0x000000006086b084        0x4 net/built-in.o
 .bss.net_nis_domain
                0x000000006086b088       0x20 net/built-in.o
                0x000000006086b088                net_nis_domain
 .bss.act.8975  0x000000006086b0a8        0x4 net/built-in.o
 .bss.first_failed.8970
                0x000000006086b0ac        0x4 net/built-in.o
 .bss.index.8927
                0x000000006086b0b0        0x4 net/built-in.o
 .bss.eth_current
                0x000000006086b0b4        0x4 net/built-in.o
                0x000000006086b0b4                eth_current
 .bss.eth_devices
                0x000000006086b0b8        0x4 net/built-in.o
 .bss.env_changed_id.8976
                0x000000006086b0bc        0x4 net/built-in.o
 .bss.net_ethaddr
                0x000000006086b0c0        0x6 net/built-in.o
                0x000000006086b0c0                net_ethaddr
 *fill*         0x000000006086b0c6        0x2 
 .bss.net_dns_server
                0x000000006086b0c8        0x4 net/built-in.o
                0x000000006086b0c8                net_dns_server
 .bss.net_state
                0x000000006086b0cc        0x4 net/built-in.o
                0x000000006086b0cc                net_state
 .bss.net_server_ip
                0x000000006086b0d0        0x4 net/built-in.o
                0x000000006086b0d0                net_server_ip
 .bss.net_rx_packet
                0x000000006086b0d4        0x4 net/built-in.o
                0x000000006086b0d4                net_rx_packet
 .bss.net_boot_file_expected_size_in_blocks
                0x000000006086b0d8        0x4 net/built-in.o
                0x000000006086b0d8                net_boot_file_expected_size_in_blocks
 .bss.net_rx_packets
                0x000000006086b0dc       0x10 net/built-in.o
                0x000000006086b0dc                net_rx_packets
 .bss.time_start
                0x000000006086b0ec        0x8 net/built-in.o
 .bss.net_gateway
                0x000000006086b0f4        0x4 net/built-in.o
                0x000000006086b0f4                net_gateway
 .bss.net_boot_file_name
                0x000000006086b0f8       0x80 net/built-in.o
                0x000000006086b0f8                net_boot_file_name
 .bss.udp_packet_handler
                0x000000006086b178        0x4 net/built-in.o
 .bss.net_dev_exists
                0x000000006086b17c        0x4 net/built-in.o
 .bss.net_server_ethaddr
                0x000000006086b180        0x6 net/built-in.o
                0x000000006086b180                net_server_ethaddr
 .bss.net_null_ethaddr
                0x000000006086b186        0x6 net/built-in.o
                0x000000006086b186                net_null_ethaddr
 .bss.net_ip_id
                0x000000006086b18c        0x4 net/built-in.o
 .bss.net_restart_wrap
                0x000000006086b190        0x4 net/built-in.o
                0x000000006086b190                net_restart_wrap
 .bss.net_try_count
                0x000000006086b194        0x4 net/built-in.o
 .bss.net_restarted
                0x000000006086b198        0x4 net/built-in.o
 .bss.time_delta
                0x000000006086b19c        0x4 net/built-in.o
 .bss.arp_packet_handler
                0x000000006086b1a0        0x4 net/built-in.o
 .bss.net_netmask
                0x000000006086b1a4        0x4 net/built-in.o
                0x000000006086b1a4                net_netmask
 .bss.net_pkt_buf
                0x000000006086b1a8     0x1e40 net/built-in.o
 .bss.net_ip    0x000000006086cfe8        0x4 net/built-in.o
                0x000000006086cfe8                net_ip
 .bss.net_rx_packet_len
                0x000000006086cfec        0x4 net/built-in.o
                0x000000006086cfec                net_rx_packet_len
 .bss.net_tx_packet
                0x000000006086cff0        0x4 net/built-in.o
                0x000000006086cff0                net_tx_packet
 .bss.time_handler
                0x000000006086cff4        0x4 net/built-in.o
 .bss.net_boot_file_size
                0x000000006086cff8        0x4 net/built-in.o
                0x000000006086cff8                net_boot_file_size
 .bss.net_ping_ip
                0x000000006086cffc        0x4 net/built-in.o
                0x000000006086cffc                net_ping_ip
 .bss.ping_seq_number
                0x000000006086d000        0x2 net/built-in.o
 *fill*         0x000000006086d002        0x2 
 .bss.tftp_prev_block
                0x000000006086d004        0x4 net/built-in.o
 .bss.timeout_count
                0x000000006086d008        0x4 net/built-in.o
 .bss.tftp_block_wrap
                0x000000006086d00c        0x4 net/built-in.o
 .bss.default_filename
                0x000000006086d010        0xd net/built-in.o
 *fill*         0x000000006086d01d        0x3 
 .bss.tftp_remote_port
                0x000000006086d020        0x4 net/built-in.o
 .bss.tftp_cur_block
                0x000000006086d024        0x4 net/built-in.o
 .bss.tftp_remote_ip
                0x000000006086d028        0x4 net/built-in.o
 .bss.tftp_state
                0x000000006086d02c        0x4 net/built-in.o
 .bss.tftp_our_port
                0x000000006086d030        0x4 net/built-in.o
 .bss.tftp_filename
                0x000000006086d034       0x80 net/built-in.o
 .bss.tftp_block_wrap_offset
                0x000000006086d0b4        0x4 net/built-in.o
                0x000000006086d0b8                . = ALIGN (0x4)
                0x000000006086d0b8                __bss_limit = .

.bss_end        0x000000006086d0b8        0x0
 *(.__bss_end)
 .__bss_end     0x000000006086d0b8        0x0 arch/arm/lib/built-in.o
                0x000000006086d0b8                __bss_end

.dynsym         0x000000006083ca10       0x60
 *(.dynsym)
 .dynsym        0x000000006083ca10       0x60 arch/arm/cpu/armv7/start.o

.dynbss         0x000000006083ca70        0x0
 *(.dynbss)
 .dynbss        0x0000000000000000        0x0 arch/arm/cpu/armv7/start.o

.dynstr         0x000000006083ca70       0x2a
 *(.dynstr*)
 .dynstr        0x000000006083ca70       0x2a arch/arm/cpu/armv7/start.o

.dynamic        0x000000006083ca9c       0x80
 *(.dynamic*)
 .dynamic       0x000000006083ca9c       0x80 arch/arm/cpu/armv7/start.o
                0x000000006083ca9c                _DYNAMIC

.plt            0x000000006083cb1c        0x0
 *(.plt*)
 .plt           0x0000000000000000        0x0 arch/arm/cpu/armv7/start.o

.interp         0x000000006083cb1c       0x11
 *(.interp*)
 .interp        0x000000006083cb1c       0x11 arch/arm/cpu/armv7/start.o

.gnu.hash
 *(.gnu.hash)

.gnu            0x000000006083cb30        0x0
 *(.gnu*)
 .gnu.version_d
                0x0000000000000000        0x0 arch/arm/cpu/armv7/start.o
 .gnu.version   0x0000000000000000        0x0 arch/arm/cpu/armv7/start.o
 .gnu.version_r
                0x0000000000000000        0x0 arch/arm/cpu/armv7/start.o

.ARM.exidx
 *(.ARM.exidx*)

.gnu.linkonce.armexidx
 *(.gnu.linkonce.armexidx.*)
LOAD arch/arm/cpu/armv7/start.o
START GROUP
LOAD arch/arm/cpu/built-in.o
LOAD arch/arm/cpu/armv7/built-in.o
LOAD arch/arm/lib/built-in.o
LOAD board/armltd/vexpress/built-in.o
LOAD common/built-in.o
LOAD disk/built-in.o
LOAD drivers/built-in.o
LOAD drivers/dma/built-in.o
LOAD drivers/gpio/built-in.o
LOAD drivers/i2c/built-in.o
LOAD drivers/mmc/built-in.o
LOAD drivers/mtd/built-in.o
LOAD drivers/mtd/onenand/built-in.o
LOAD drivers/mtd/spi/built-in.o
LOAD drivers/net/built-in.o
LOAD drivers/net/phy/built-in.o
LOAD drivers/pci/built-in.o
LOAD drivers/power/built-in.o
LOAD drivers/power/battery/built-in.o
LOAD drivers/power/fuel_gauge/built-in.o
LOAD drivers/power/mfd/built-in.o
LOAD drivers/power/pmic/built-in.o
LOAD drivers/power/regulator/built-in.o
LOAD drivers/serial/built-in.o
LOAD drivers/spi/built-in.o
LOAD drivers/usb/dwc3/built-in.o
LOAD drivers/usb/emul/built-in.o
LOAD drivers/usb/eth/built-in.o
LOAD drivers/usb/gadget/built-in.o
LOAD drivers/usb/gadget/udc/built-in.o
LOAD drivers/usb/host/built-in.o
LOAD drivers/usb/musb-new/built-in.o
LOAD drivers/usb/musb/built-in.o
LOAD drivers/usb/phy/built-in.o
LOAD drivers/usb/ulpi/built-in.o
LOAD fs/built-in.o
LOAD lib/built-in.o
LOAD net/built-in.o
LOAD test/built-in.o
LOAD test/dm/built-in.o
END GROUP
LOAD arch/arm/lib/eabi_compat.o
LOAD /usr/lib/gcc-cross/arm-linux-gnueabihf/4.8/sf/libgcc.a
OUTPUT(u-boot elf32-littlearm)

.ARM.attributes
                0x0000000000000000       0x2b
 .ARM.attributes
                0x0000000000000000       0x1f arch/arm/cpu/armv7/start.o
 .ARM.attributes
                0x000000000000001f       0x2d arch/arm/cpu/armv7/built-in.o
 .ARM.attributes
                0x000000000000004c       0x2b arch/arm/lib/built-in.o
 .ARM.attributes
                0x0000000000000077       0x2d board/armltd/vexpress/built-in.o
 .ARM.attributes
                0x00000000000000a4       0x2d common/built-in.o
 .ARM.attributes
                0x00000000000000d1       0x2d disk/built-in.o
 .ARM.attributes
                0x00000000000000fe       0x2d drivers/built-in.o
 .ARM.attributes
                0x000000000000012b       0x2d drivers/mmc/built-in.o
 .ARM.attributes
                0x0000000000000158       0x2d drivers/mtd/built-in.o
 .ARM.attributes
                0x0000000000000185       0x2d drivers/net/built-in.o
 .ARM.attributes
                0x00000000000001b2       0x2d drivers/serial/built-in.o
 .ARM.attributes
                0x00000000000001df       0x2d fs/built-in.o
 .ARM.attributes
                0x000000000000020c       0x2d lib/built-in.o
 .ARM.attributes
                0x0000000000000239       0x2d net/built-in.o
 .ARM.attributes
                0x0000000000000266       0x2d arch/arm/lib/eabi_compat.o
 .ARM.attributes
                0x0000000000000293       0x21 /usr/lib/gcc-cross/arm-linux-gnueabihf/4.8/sf/libgcc.a(_udivsi3.o)
 .ARM.attributes
                0x00000000000002b4       0x21 /usr/lib/gcc-cross/arm-linux-gnueabihf/4.8/sf/libgcc.a(_divsi3.o)
 .ARM.attributes
                0x00000000000002d5       0x21 /usr/lib/gcc-cross/arm-linux-gnueabihf/4.8/sf/libgcc.a(_lshrdi3.o)
 .ARM.attributes
                0x00000000000002f6       0x21 /usr/lib/gcc-cross/arm-linux-gnueabihf/4.8/sf/libgcc.a(_ashldi3.o)
 .ARM.attributes
                0x0000000000000317       0x21 /usr/lib/gcc-cross/arm-linux-gnueabihf/4.8/sf/libgcc.a(_dvmd_lnx.o)

.comment        0x0000000000000000       0x2b
 .comment       0x0000000000000000       0x2b arch/arm/cpu/armv7/built-in.o
                                         0xb0 (size before relaxing)
 .comment       0x0000000000000000      0x160 arch/arm/lib/built-in.o
 .comment       0x0000000000000000       0x2c board/armltd/vexpress/built-in.o
 .comment       0x0000000000000000      0x8c4 common/built-in.o
 .comment       0x0000000000000000       0x58 disk/built-in.o
 .comment       0x0000000000000000      0x108 drivers/built-in.o
 .comment       0x0000000000000000       0x84 drivers/mmc/built-in.o
 .comment       0x0000000000000000       0x2c drivers/mtd/built-in.o
 .comment       0x0000000000000000       0x2c drivers/net/built-in.o
 .comment       0x0000000000000000       0x58 drivers/serial/built-in.o
 .comment       0x0000000000000000       0x84 fs/built-in.o
 .comment       0x0000000000000000      0x70c lib/built-in.o
 .comment       0x0000000000000000      0x134 net/built-in.o
 .comment       0x0000000000000000       0x2c arch/arm/lib/eabi_compat.o

.note.GNU-stack
                0x0000000000000000        0x0
 .note.GNU-stack
                0x0000000000000000        0x0 arch/arm/cpu/armv7/built-in.o
 .note.GNU-stack
                0x0000000000000000        0x0 arch/arm/lib/built-in.o
 .note.GNU-stack
                0x0000000000000000        0x0 board/armltd/vexpress/built-in.o
 .note.GNU-stack
                0x0000000000000000        0x0 common/built-in.o
 .note.GNU-stack
                0x0000000000000000        0x0 disk/built-in.o
 .note.GNU-stack
                0x0000000000000000        0x0 drivers/built-in.o
 .note.GNU-stack
                0x0000000000000000        0x0 drivers/mmc/built-in.o
 .note.GNU-stack
                0x0000000000000000        0x0 drivers/mtd/built-in.o
 .note.GNU-stack
                0x0000000000000000        0x0 drivers/net/built-in.o
 .note.GNU-stack
                0x0000000000000000        0x0 drivers/serial/built-in.o
 .note.GNU-stack
                0x0000000000000000        0x0 fs/built-in.o
 .note.GNU-stack
                0x0000000000000000        0x0 lib/built-in.o
 .note.GNU-stack
                0x0000000000000000        0x0 net/built-in.o
 .note.GNU-stack
                0x0000000000000000        0x0 arch/arm/lib/eabi_compat.o
 .note.GNU-stack
                0x0000000000000000        0x0 /usr/lib/gcc-cross/arm-linux-gnueabihf/4.8/sf/libgcc.a(_udivsi3.o)
 .note.GNU-stack
                0x0000000000000000        0x0 /usr/lib/gcc-cross/arm-linux-gnueabihf/4.8/sf/libgcc.a(_divsi3.o)
 .note.GNU-stack
                0x0000000000000000        0x0 /usr/lib/gcc-cross/arm-linux-gnueabihf/4.8/sf/libgcc.a(_lshrdi3.o)
 .note.GNU-stack
                0x0000000000000000        0x0 /usr/lib/gcc-cross/arm-linux-gnueabihf/4.8/sf/libgcc.a(_ashldi3.o)
 .note.GNU-stack
                0x0000000000000000        0x0 /usr/lib/gcc-cross/arm-linux-gnueabihf/4.8/sf/libgcc.a(_dvmd_lnx.o)

.debug_line     0x0000000000000000    0x15193
 .debug_line    0x0000000000000000       0x86 arch/arm/cpu/armv7/start.o
 .debug_line    0x0000000000000086      0x512 arch/arm/cpu/armv7/built-in.o
 .debug_line    0x0000000000000598      0xc91 arch/arm/lib/built-in.o
 .debug_line    0x0000000000001229      0x25b board/armltd/vexpress/built-in.o
 .debug_line    0x0000000000001484     0x8f94 common/built-in.o
 .debug_line    0x000000000000a418      0x623 disk/built-in.o
 .debug_line    0x000000000000aa3b      0x6ac drivers/built-in.o
 .debug_line    0x000000000000b0e7      0xdf0 drivers/mmc/built-in.o
 .debug_line    0x000000000000bed7      0xafe drivers/mtd/built-in.o
 .debug_line    0x000000000000c9d5      0x2f4 drivers/net/built-in.o
 .debug_line    0x000000000000ccc9      0x5a9 drivers/serial/built-in.o
 .debug_line    0x000000000000d272      0xca5 fs/built-in.o
 .debug_line    0x000000000000df17     0x5a45 lib/built-in.o
 .debug_line    0x000000000001395c     0x1715 net/built-in.o
 .debug_line    0x0000000000015071      0x122 arch/arm/lib/eabi_compat.o

.debug_info     0x0000000000000000    0x767c2
 .debug_info    0x0000000000000000       0x57 arch/arm/cpu/armv7/start.o
 .debug_info    0x0000000000000057     0x185d arch/arm/cpu/armv7/built-in.o
 .debug_info    0x00000000000018b4     0x43dc arch/arm/lib/built-in.o
 .debug_info    0x0000000000005c90     0x144b board/armltd/vexpress/built-in.o
 .debug_info    0x00000000000070db    0x39145 common/built-in.o
 .debug_info    0x0000000000040220     0x21e5 disk/built-in.o
 .debug_info    0x0000000000042405     0x2de7 drivers/built-in.o
 .debug_info    0x00000000000451ec     0x50cf drivers/mmc/built-in.o
 .debug_info    0x000000000004a2bb     0x45df drivers/mtd/built-in.o
 .debug_info    0x000000000004e89a     0x110a drivers/net/built-in.o
 .debug_info    0x000000000004f9a4     0x2182 drivers/serial/built-in.o
 .debug_info    0x0000000000051b26     0x4842 fs/built-in.o
 .debug_info    0x0000000000056368    0x16e25 lib/built-in.o
 .debug_info    0x000000000006d18d     0x916a net/built-in.o
 .debug_info    0x00000000000762f7      0x4cb arch/arm/lib/eabi_compat.o

.debug_abbrev   0x0000000000000000    0x165e4
 .debug_abbrev  0x0000000000000000       0x14 arch/arm/cpu/armv7/start.o
 .debug_abbrev  0x0000000000000014      0x726 arch/arm/cpu/armv7/built-in.o
 .debug_abbrev  0x000000000000073a      0xfef arch/arm/lib/built-in.o
 .debug_abbrev  0x0000000000001729      0x3cc board/armltd/vexpress/built-in.o
 .debug_abbrev  0x0000000000001af5     0x9aa9 common/built-in.o
 .debug_abbrev  0x000000000000b59e      0x712 disk/built-in.o
 .debug_abbrev  0x000000000000bcb0      0x947 drivers/built-in.o
 .debug_abbrev  0x000000000000c5f7      0xda1 drivers/mmc/built-in.o
 .debug_abbrev  0x000000000000d398      0x587 drivers/mtd/built-in.o
 .debug_abbrev  0x000000000000d91f      0x3e9 drivers/net/built-in.o
 .debug_abbrev  0x000000000000dd08      0x795 drivers/serial/built-in.o
 .debug_abbrev  0x000000000000e49d      0xba3 fs/built-in.o
 .debug_abbrev  0x000000000000f040     0x581c lib/built-in.o
 .debug_abbrev  0x000000000001485c     0x1bd0 net/built-in.o
 .debug_abbrev  0x000000000001642c      0x1b8 arch/arm/lib/eabi_compat.o

.debug_aranges  0x0000000000000000     0x2e28
 .debug_aranges
                0x0000000000000000       0x20 arch/arm/cpu/armv7/start.o
 .debug_aranges
                0x0000000000000020      0x118 arch/arm/cpu/armv7/built-in.o
 .debug_aranges
                0x0000000000000138      0x260 arch/arm/lib/built-in.o
 .debug_aranges
                0x0000000000000398       0x60 board/armltd/vexpress/built-in.o
 .debug_aranges
                0x00000000000003f8     0x13b8 common/built-in.o
 .debug_aranges
                0x00000000000017b0       0xa0 disk/built-in.o
 .debug_aranges
                0x0000000000001850       0xd8 drivers/built-in.o
 .debug_aranges
                0x0000000000001928      0x190 drivers/mmc/built-in.o
 .debug_aranges
                0x0000000000001ab8       0xe0 drivers/mtd/built-in.o
 .debug_aranges
                0x0000000000001b98       0x78 drivers/net/built-in.o
 .debug_aranges
                0x0000000000001c10      0x118 drivers/serial/built-in.o
 .debug_aranges
                0x0000000000001d28      0x1e0 fs/built-in.o
 .debug_aranges
                0x0000000000001f08      0xbe0 lib/built-in.o
 .debug_aranges
                0x0000000000002ae8      0x300 net/built-in.o
 .debug_aranges
                0x0000000000002de8       0x40 arch/arm/lib/eabi_compat.o

.debug_frame    0x0000000000000000     0x8220
 .debug_frame   0x0000000000000000      0x21c arch/arm/cpu/armv7/built-in.o
 .debug_frame   0x000000000000021c      0x3ec arch/arm/lib/built-in.o
 .debug_frame   0x0000000000000608       0xd4 board/armltd/vexpress/built-in.o
 .debug_frame   0x00000000000006dc     0x3a74 common/built-in.o
 .debug_frame   0x0000000000004150      0x218 disk/built-in.o
 .debug_frame   0x0000000000004368      0x124 drivers/built-in.o
 .debug_frame   0x000000000000448c      0x4dc drivers/mmc/built-in.o
 .debug_frame   0x0000000000004968      0x37c drivers/mtd/built-in.o
 .debug_frame   0x0000000000004ce4      0x180 drivers/net/built-in.o
 .debug_frame   0x0000000000004e64      0x2a4 drivers/serial/built-in.o
 .debug_frame   0x0000000000005108      0x614 fs/built-in.o
 .debug_frame   0x000000000000571c     0x21b4 lib/built-in.o
 .debug_frame   0x00000000000078d0      0x8e8 net/built-in.o
 .debug_frame   0x00000000000081b8       0x68 arch/arm/lib/eabi_compat.o

.debug_str      0x0000000000000000     0xc2ce
 .debug_str     0x0000000000000000      0x792 arch/arm/cpu/armv7/built-in.o
                                       0x1427 (size before relaxing)
 .debug_str     0x0000000000000792     0x1457 arch/arm/lib/built-in.o
                                       0x384e (size before relaxing)
 .debug_str     0x0000000000001be9      0x674 board/armltd/vexpress/built-in.o
                                        0xc65 (size before relaxing)
 .debug_str     0x000000000000225d     0x56fe common/built-in.o
                                      0x1f72f (size before relaxing)
 .debug_str     0x000000000000795b      0x28d disk/built-in.o
                                        0xe7e (size before relaxing)
 .debug_str     0x0000000000007be8      0x48c drivers/built-in.o
                                       0x2649 (size before relaxing)
 .debug_str     0x0000000000008074      0x55f drivers/mmc/built-in.o
                                       0x1de3 (size before relaxing)
 .debug_str     0x00000000000085d3      0x681 drivers/mtd/built-in.o
                                        0xd6a (size before relaxing)
 .debug_str     0x0000000000008c54      0x1b9 drivers/net/built-in.o
                                        0x619 (size before relaxing)
 .debug_str     0x0000000000008e0d      0x31d drivers/serial/built-in.o
                                       0x13ec (size before relaxing)
 .debug_str     0x000000000000912a      0x755 fs/built-in.o
                                       0x1a1a (size before relaxing)
 .debug_str     0x000000000000987f     0x19b2 lib/built-in.o
                                       0xbfbe (size before relaxing)
 .debug_str     0x000000000000b231     0x1029 net/built-in.o
                                       0x603e (size before relaxing)
 .debug_str     0x000000000000c25a       0x74 arch/arm/lib/eabi_compat.o
                                        0x46c (size before relaxing)

.debug_loc      0x0000000000000000    0x420d2
 .debug_loc     0x0000000000000000      0x616 arch/arm/cpu/armv7/built-in.o
 .debug_loc     0x0000000000000616      0x9b0 arch/arm/lib/built-in.o
 .debug_loc     0x0000000000000fc6      0x12b board/armltd/vexpress/built-in.o
 .debug_loc     0x00000000000010f1    0x16d69 common/built-in.o
 .debug_loc     0x0000000000017e5a     0x10a4 disk/built-in.o
 .debug_loc     0x0000000000018efe      0xbab drivers/built-in.o
 .debug_loc     0x0000000000019aa9     0x29e8 drivers/mmc/built-in.o
 .debug_loc     0x000000000001c491     0x3457 drivers/mtd/built-in.o
 .debug_loc     0x000000000001f8e8      0x6dc drivers/net/built-in.o
 .debug_loc     0x000000000001ffc4      0x7e0 drivers/serial/built-in.o
 .debug_loc     0x00000000000207a4     0x2ffe fs/built-in.o
 .debug_loc     0x00000000000237a2    0x1bb75 lib/built-in.o
 .debug_loc     0x000000000003f317     0x2cb3 net/built-in.o
 .debug_loc     0x0000000000041fca      0x108 arch/arm/lib/eabi_compat.o

.debug_ranges   0x0000000000000000     0x4d20
 .debug_ranges  0x0000000000000000       0xf0 arch/arm/cpu/armv7/built-in.o
 .debug_ranges  0x00000000000000f0      0x1f0 arch/arm/lib/built-in.o
 .debug_ranges  0x00000000000002e0       0x98 board/armltd/vexpress/built-in.o
 .debug_ranges  0x0000000000000378     0x1e88 common/built-in.o
 .debug_ranges  0x0000000000002200      0x148 disk/built-in.o
 .debug_ranges  0x0000000000002348      0x140 drivers/built-in.o
 .debug_ranges  0x0000000000002488      0x4d0 drivers/mmc/built-in.o
 .debug_ranges  0x0000000000002958      0x568 drivers/mtd/built-in.o
 .debug_ranges  0x0000000000002ec0       0xa8 drivers/net/built-in.o
 .debug_ranges  0x0000000000002f68      0x128 drivers/serial/built-in.o
 .debug_ranges  0x0000000000003090      0x2d0 fs/built-in.o
 .debug_ranges  0x0000000000003360     0x1338 lib/built-in.o
 .debug_ranges  0x0000000000004698      0x658 net/built-in.o
 .debug_ranges  0x0000000000004cf0       0x30 arch/arm/lib/eabi_compat.o
